Archive member included because of file (symbol)

/opt/Freescale/KSDK_1.2.0/examples/frdmk64f/demo_apps/usb/device/hid/hhkb/bm/kds/../../../../../../../../../usb/usb_core/device/build/kds/usbd_sdk_frdmk64f_bm/debug/libusbd_bm.a(usb_hid.o)
                              ./sources/keyboard.o (USB_Class_HID_Init)
/opt/Freescale/KSDK_1.2.0/examples/frdmk64f/demo_apps/usb/device/hid/hhkb/bm/kds/../../../../../../../../../usb/usb_core/device/build/kds/usbd_sdk_frdmk64f_bm/debug/libusbd_bm.a(usb_class.o)
                              /opt/Freescale/KSDK_1.2.0/examples/frdmk64f/demo_apps/usb/device/hid/hhkb/bm/kds/../../../../../../../../../usb/usb_core/device/build/kds/usbd_sdk_frdmk64f_bm/debug/libusbd_bm.a(usb_hid.o) (USB_Class_Init)
/opt/Freescale/KSDK_1.2.0/examples/frdmk64f/demo_apps/usb/device/hid/hhkb/bm/kds/../../../../../../../../../usb/usb_core/device/build/kds/usbd_sdk_frdmk64f_bm/debug/libusbd_bm.a(usb_dev.o)
                              /opt/Freescale/KSDK_1.2.0/examples/frdmk64f/demo_apps/usb/device/hid/hhkb/bm/kds/../../../../../../../../../usb/usb_core/device/build/kds/usbd_sdk_frdmk64f_bm/debug/libusbd_bm.a(usb_class.o) (usb_device_get_status)
/opt/Freescale/KSDK_1.2.0/examples/frdmk64f/demo_apps/usb/device/hid/hhkb/bm/kds/../../../../../../../../../usb/usb_core/device/build/kds/usbd_sdk_frdmk64f_bm/debug/libusbd_bm.a(usb_framework.o)
                              /opt/Freescale/KSDK_1.2.0/examples/frdmk64f/demo_apps/usb/device/hid/hhkb/bm/kds/../../../../../../../../../usb/usb_core/device/build/kds/usbd_sdk_frdmk64f_bm/debug/libusbd_bm.a(usb_dev.o) (USB_Reset_Service)
/opt/Freescale/KSDK_1.2.0/examples/frdmk64f/demo_apps/usb/device/hid/hhkb/bm/kds/../../../../../../../../../usb/usb_core/device/build/kds/usbd_sdk_frdmk64f_bm/debug/libusbd_bm.a(usb_dev_bsp.o)
                              /opt/Freescale/KSDK_1.2.0/examples/frdmk64f/demo_apps/usb/device/hid/hhkb/bm/kds/../../../../../../../../../usb/usb_core/device/build/kds/usbd_sdk_frdmk64f_bm/debug/libusbd_bm.a(usb_dev.o) (bsp_usb_dev_init)
/opt/Freescale/KSDK_1.2.0/examples/frdmk64f/demo_apps/usb/device/hid/hhkb/bm/kds/../../../../../../../../../usb/usb_core/device/build/kds/usbd_sdk_frdmk64f_bm/debug/libusbd_bm.a(adapter_sdk.o)
                              /opt/Freescale/KSDK_1.2.0/examples/frdmk64f/demo_apps/usb/device/hid/hhkb/bm/kds/../../../../../../../../../usb/usb_core/device/build/kds/usbd_sdk_frdmk64f_bm/debug/libusbd_bm.a(usb_dev_bsp.o) (soc_get_usb_vector_number)
/opt/Freescale/KSDK_1.2.0/examples/frdmk64f/demo_apps/usb/device/hid/hhkb/bm/kds/../../../../../../../../../usb/usb_core/device/build/kds/usbd_sdk_frdmk64f_bm/debug/libusbd_bm.a(device_khci_interface.o)
                              /opt/Freescale/KSDK_1.2.0/examples/frdmk64f/demo_apps/usb/device/hid/hhkb/bm/kds/../../../../../../../../../usb/usb_core/device/build/kds/usbd_sdk_frdmk64f_bm/debug/libusbd_bm.a(usb_dev.o) (_usb_khci_dev_function_table)
/opt/Freescale/KSDK_1.2.0/examples/frdmk64f/demo_apps/usb/device/hid/hhkb/bm/kds/../../../../../../../../../usb/usb_core/device/build/kds/usbd_sdk_frdmk64f_bm/debug/libusbd_bm.a(khci_dev.o)
                              /opt/Freescale/KSDK_1.2.0/examples/frdmk64f/demo_apps/usb/device/hid/hhkb/bm/kds/../../../../../../../../../usb/usb_core/device/build/kds/usbd_sdk_frdmk64f_bm/debug/libusbd_bm.a(device_khci_interface.o) (usb_dci_khci_get_xd)
/opt/Freescale/KSDK_1.2.0/examples/frdmk64f/demo_apps/usb/device/hid/hhkb/bm/kds/../../../../../../../../../lib/ksdk_platform_lib/kds/K64F12/debug/libksdk_platform.a(fsl_uart_hal.o)
                              ./utilities/fsl_debug_console.o (UART_HAL_SetBaudRate)
/opt/Freescale/KSDK_1.2.0/examples/frdmk64f/demo_apps/usb/device/hid/hhkb/bm/kds/../../../../../../../../../lib/ksdk_platform_lib/kds/K64F12/debug/libksdk_platform.a(fsl_sim_hal_MK64F12.o)
                              /opt/Freescale/KSDK_1.2.0/examples/frdmk64f/demo_apps/usb/device/hid/hhkb/bm/kds/../../../../../../../../../usb/usb_core/device/build/kds/usbd_sdk_frdmk64f_bm/debug/libusbd_bm.a(usb_dev_bsp.o) (CLOCK_HAL_SetUsbfsDiv)
/opt/Freescale/KSDK_1.2.0/examples/frdmk64f/demo_apps/usb/device/hid/hhkb/bm/kds/../../../../../../../../../lib/ksdk_platform_lib/kds/K64F12/debug/libksdk_platform.a(fsl_lptmr_driver.o)
                              ./sources/keyboard.o (LPTMR_DRV_Init)
/opt/Freescale/KSDK_1.2.0/examples/frdmk64f/demo_apps/usb/device/hid/hhkb/bm/kds/../../../../../../../../../lib/ksdk_platform_lib/kds/K64F12/debug/libksdk_platform.a(fsl_gpio_driver.o)
                              ./sources/keyboard.o (GPIO_DRV_InputPinInit)
/opt/Freescale/KSDK_1.2.0/examples/frdmk64f/demo_apps/usb/device/hid/hhkb/bm/kds/../../../../../../../../../lib/ksdk_platform_lib/kds/K64F12/debug/libksdk_platform.a(fsl_clock_MK64F12.o)
                              ./board/board.o (CLOCK_SYS_SetConfiguration)
/opt/Freescale/KSDK_1.2.0/examples/frdmk64f/demo_apps/usb/device/hid/hhkb/bm/kds/../../../../../../../../../lib/ksdk_platform_lib/kds/K64F12/debug/libksdk_platform.a(fsl_clock_manager.o)
                              /opt/Freescale/KSDK_1.2.0/examples/frdmk64f/demo_apps/usb/device/hid/hhkb/bm/kds/../../../../../../../../../lib/ksdk_platform_lib/kds/K64F12/debug/libksdk_platform.a(fsl_clock_MK64F12.o) (CLOCK_SYS_SetMcgMode)
/opt/Freescale/KSDK_1.2.0/examples/frdmk64f/demo_apps/usb/device/hid/hhkb/bm/kds/../../../../../../../../../lib/ksdk_platform_lib/kds/K64F12/debug/libksdk_platform.a(fsl_clock_manager_common.o)
                              /opt/Freescale/KSDK_1.2.0/examples/frdmk64f/demo_apps/usb/device/hid/hhkb/bm/kds/../../../../../../../../../lib/ksdk_platform_lib/kds/K64F12/debug/libksdk_platform.a(fsl_clock_MK64F12.o) (g_oscBase)
/opt/Freescale/KSDK_1.2.0/examples/frdmk64f/demo_apps/usb/device/hid/hhkb/bm/kds/../../../../../../../../../lib/ksdk_platform_lib/kds/K64F12/debug/libksdk_platform.a(fsl_os_abstraction_bm.o)
                              /opt/Freescale/KSDK_1.2.0/examples/frdmk64f/demo_apps/usb/device/hid/hhkb/bm/kds/../../../../../../../../../usb/usb_core/device/build/kds/usbd_sdk_frdmk64f_bm/debug/libusbd_bm.a(adapter_sdk.o) (OSA_SemaCreate)
/opt/Freescale/KSDK_1.2.0/examples/frdmk64f/demo_apps/usb/device/hid/hhkb/bm/kds/../../../../../../../../../lib/ksdk_platform_lib/kds/K64F12/debug/libksdk_platform.a(fsl_rtc_common.o)
                              /opt/Freescale/KSDK_1.2.0/examples/frdmk64f/demo_apps/usb/device/hid/hhkb/bm/kds/../../../../../../../../../lib/ksdk_platform_lib/kds/K64F12/debug/libksdk_platform.a(fsl_clock_manager.o) (g_rtcBase)
/opt/Freescale/KSDK_1.2.0/examples/frdmk64f/demo_apps/usb/device/hid/hhkb/bm/kds/../../../../../../../../../lib/ksdk_platform_lib/kds/K64F12/debug/libksdk_platform.a(fsl_osc_hal.o)
                              /opt/Freescale/KSDK_1.2.0/examples/frdmk64f/demo_apps/usb/device/hid/hhkb/bm/kds/../../../../../../../../../lib/ksdk_platform_lib/kds/K64F12/debug/libksdk_platform.a(fsl_clock_manager.o) (OSC_HAL_SetCapacitor)
/opt/Freescale/KSDK_1.2.0/examples/frdmk64f/demo_apps/usb/device/hid/hhkb/bm/kds/../../../../../../../../../lib/ksdk_platform_lib/kds/K64F12/debug/libksdk_platform.a(fsl_mcg_hal.o)
                              /opt/Freescale/KSDK_1.2.0/examples/frdmk64f/demo_apps/usb/device/hid/hhkb/bm/kds/../../../../../../../../../lib/ksdk_platform_lib/kds/K64F12/debug/libksdk_platform.a(fsl_clock_MK64F12.o) (CLOCK_HAL_GetFllClk)
/opt/Freescale/KSDK_1.2.0/examples/frdmk64f/demo_apps/usb/device/hid/hhkb/bm/kds/../../../../../../../../../lib/ksdk_platform_lib/kds/K64F12/debug/libksdk_platform.a(fsl_mcg_hal_modes.o)
                              /opt/Freescale/KSDK_1.2.0/examples/frdmk64f/demo_apps/usb/device/hid/hhkb/bm/kds/../../../../../../../../../lib/ksdk_platform_lib/kds/K64F12/debug/libksdk_platform.a(fsl_clock_manager.o) (CLOCK_HAL_GetMcgMode)
/opt/Freescale/KSDK_1.2.0/examples/frdmk64f/demo_apps/usb/device/hid/hhkb/bm/kds/../../../../../../../../../lib/ksdk_platform_lib/kds/K64F12/debug/libksdk_platform.a(fsl_lptmr_hal.o)
                              /opt/Freescale/KSDK_1.2.0/examples/frdmk64f/demo_apps/usb/device/hid/hhkb/bm/kds/../../../../../../../../../lib/ksdk_platform_lib/kds/K64F12/debug/libksdk_platform.a(fsl_lptmr_driver.o) (LPTMR_HAL_Init)
/opt/Freescale/KSDK_1.2.0/examples/frdmk64f/demo_apps/usb/device/hid/hhkb/bm/kds/../../../../../../../../../lib/ksdk_platform_lib/kds/K64F12/debug/libksdk_platform.a(fsl_lptmr_common.o)
                              /opt/Freescale/KSDK_1.2.0/examples/frdmk64f/demo_apps/usb/device/hid/hhkb/bm/kds/../../../../../../../../../lib/ksdk_platform_lib/kds/K64F12/debug/libksdk_platform.a(fsl_lptmr_driver.o) (g_lptmrIrqId)
/opt/Freescale/KSDK_1.2.0/examples/frdmk64f/demo_apps/usb/device/hid/hhkb/bm/kds/../../../../../../../../../lib/ksdk_platform_lib/kds/K64F12/debug/libksdk_platform.a(fsl_interrupt_manager.o)
                              /opt/Freescale/KSDK_1.2.0/examples/frdmk64f/demo_apps/usb/device/hid/hhkb/bm/kds/../../../../../../../../../lib/ksdk_platform_lib/kds/K64F12/debug/libksdk_platform.a(fsl_os_abstraction_bm.o) (INT_SYS_InstallHandler)
/opt/Freescale/KSDK_1.2.0/examples/frdmk64f/demo_apps/usb/device/hid/hhkb/bm/kds/../../../../../../../../../lib/ksdk_platform_lib/kds/K64F12/debug/libksdk_platform.a(fsl_gpio_hal.o)
                              /opt/Freescale/KSDK_1.2.0/examples/frdmk64f/demo_apps/usb/device/hid/hhkb/bm/kds/../../../../../../../../../lib/ksdk_platform_lib/kds/K64F12/debug/libksdk_platform.a(fsl_gpio_driver.o) (GPIO_HAL_SetPinDir)
/opt/Freescale/KSDK_1.2.0/examples/frdmk64f/demo_apps/usb/device/hid/hhkb/bm/kds/../../../../../../../../../lib/ksdk_platform_lib/kds/K64F12/debug/libksdk_platform.a(fsl_gpio_common.o)
                              /opt/Freescale/KSDK_1.2.0/examples/frdmk64f/demo_apps/usb/device/hid/hhkb/bm/kds/../../../../../../../../../lib/ksdk_platform_lib/kds/K64F12/debug/libksdk_platform.a(fsl_gpio_driver.o) (g_portIrqId)
/opt/Freescale/KDS_3.0.0/toolchain/bin/../lib/gcc/arm-none-eabi/4.8.4/../../../../arm-none-eabi/lib/armv7e-m/fpu/libg_s.a(lib_a-assert.o)
                              ./board/pin_mux.o (__assert_func)
/opt/Freescale/KDS_3.0.0/toolchain/bin/../lib/gcc/arm-none-eabi/4.8.4/../../../../arm-none-eabi/lib/armv7e-m/fpu/libg_s.a(lib_a-calloc.o)
                              /opt/Freescale/KSDK_1.2.0/examples/frdmk64f/demo_apps/usb/device/hid/hhkb/bm/kds/../../../../../../../../../lib/ksdk_platform_lib/kds/K64F12/debug/libksdk_platform.a(fsl_os_abstraction_bm.o) (calloc)
/opt/Freescale/KDS_3.0.0/toolchain/bin/../lib/gcc/arm-none-eabi/4.8.4/../../../../arm-none-eabi/lib/armv7e-m/fpu/libg_s.a(lib_a-errno.o)
                              ./utilities/fsl_misc_utilities.o (__errno)
/opt/Freescale/KDS_3.0.0/toolchain/bin/../lib/gcc/arm-none-eabi/4.8.4/../../../../arm-none-eabi/lib/armv7e-m/fpu/libg_s.a(lib_a-exit.o)
                              /opt/Freescale/KDS_3.0.0/toolchain/bin/../lib/gcc/arm-none-eabi/4.8.4/../../../../arm-none-eabi/lib/armv7e-m/fpu/crt0.o (exit)
/opt/Freescale/KDS_3.0.0/toolchain/bin/../lib/gcc/arm-none-eabi/4.8.4/../../../../arm-none-eabi/lib/armv7e-m/fpu/libg_s.a(lib_a-fprintf.o)
                              /opt/Freescale/KDS_3.0.0/toolchain/bin/../lib/gcc/arm-none-eabi/4.8.4/../../../../arm-none-eabi/lib/armv7e-m/fpu/libg_s.a(lib_a-assert.o) (fiprintf)
/opt/Freescale/KDS_3.0.0/toolchain/bin/../lib/gcc/arm-none-eabi/4.8.4/../../../../arm-none-eabi/lib/armv7e-m/fpu/libg_s.a(lib_a-impure.o)
                              /opt/Freescale/KDS_3.0.0/toolchain/bin/../lib/gcc/arm-none-eabi/4.8.4/../../../../arm-none-eabi/lib/armv7e-m/fpu/libg_s.a(lib_a-exit.o) (_global_impure_ptr)
/opt/Freescale/KDS_3.0.0/toolchain/bin/../lib/gcc/arm-none-eabi/4.8.4/../../../../arm-none-eabi/lib/armv7e-m/fpu/libg_s.a(lib_a-init.o)
                              /opt/Freescale/KDS_3.0.0/toolchain/bin/../lib/gcc/arm-none-eabi/4.8.4/../../../../arm-none-eabi/lib/armv7e-m/fpu/crt0.o (__libc_init_array)
/opt/Freescale/KDS_3.0.0/toolchain/bin/../lib/gcc/arm-none-eabi/4.8.4/../../../../arm-none-eabi/lib/armv7e-m/fpu/libg_s.a(lib_a-malloc.o)
                              /opt/Freescale/KSDK_1.2.0/examples/frdmk64f/demo_apps/usb/device/hid/hhkb/bm/kds/../../../../../../../../../lib/ksdk_platform_lib/kds/K64F12/debug/libksdk_platform.a(fsl_os_abstraction_bm.o) (malloc)
/opt/Freescale/KDS_3.0.0/toolchain/bin/../lib/gcc/arm-none-eabi/4.8.4/../../../../arm-none-eabi/lib/armv7e-m/fpu/libg_s.a(lib_a-memcpy-stub.o)
                              /opt/Freescale/KSDK_1.2.0/examples/frdmk64f/demo_apps/usb/device/hid/hhkb/bm/kds/../../../../../../../../../usb/usb_core/device/build/kds/usbd_sdk_frdmk64f_bm/debug/libusbd_bm.a(usb_hid.o) (memcpy)
/opt/Freescale/KDS_3.0.0/toolchain/bin/../lib/gcc/arm-none-eabi/4.8.4/../../../../arm-none-eabi/lib/armv7e-m/fpu/libg_s.a(lib_a-memset.o)
                              /opt/Freescale/KDS_3.0.0/toolchain/bin/../lib/gcc/arm-none-eabi/4.8.4/../../../../arm-none-eabi/lib/armv7e-m/fpu/crt0.o (memset)
/opt/Freescale/KDS_3.0.0/toolchain/bin/../lib/gcc/arm-none-eabi/4.8.4/../../../../arm-none-eabi/lib/armv7e-m/fpu/libg_s.a(lib_a-nano-callocr.o)
                              /opt/Freescale/KDS_3.0.0/toolchain/bin/../lib/gcc/arm-none-eabi/4.8.4/../../../../arm-none-eabi/lib/armv7e-m/fpu/libg_s.a(lib_a-calloc.o) (_calloc_r)
/opt/Freescale/KDS_3.0.0/toolchain/bin/../lib/gcc/arm-none-eabi/4.8.4/../../../../arm-none-eabi/lib/armv7e-m/fpu/libg_s.a(lib_a-nano-freer.o)
                              /opt/Freescale/KDS_3.0.0/toolchain/bin/../lib/gcc/arm-none-eabi/4.8.4/../../../../arm-none-eabi/lib/armv7e-m/fpu/libg_s.a(lib_a-malloc.o) (_free_r)
/opt/Freescale/KDS_3.0.0/toolchain/bin/../lib/gcc/arm-none-eabi/4.8.4/../../../../arm-none-eabi/lib/armv7e-m/fpu/libg_s.a(lib_a-nano-mallocr.o)
                              /opt/Freescale/KDS_3.0.0/toolchain/bin/../lib/gcc/arm-none-eabi/4.8.4/../../../../arm-none-eabi/lib/armv7e-m/fpu/libg_s.a(lib_a-malloc.o) (_malloc_r)
/opt/Freescale/KDS_3.0.0/toolchain/bin/../lib/gcc/arm-none-eabi/4.8.4/../../../../arm-none-eabi/lib/armv7e-m/fpu/libg_s.a(lib_a-sbrkr.o)
                              /opt/Freescale/KDS_3.0.0/toolchain/bin/../lib/gcc/arm-none-eabi/4.8.4/../../../../arm-none-eabi/lib/armv7e-m/fpu/libg_s.a(lib_a-nano-mallocr.o) (_sbrk_r)
/opt/Freescale/KDS_3.0.0/toolchain/bin/../lib/gcc/arm-none-eabi/4.8.4/../../../../arm-none-eabi/lib/armv7e-m/fpu/libg_s.a(lib_a-strlen.o)
                              ./utilities/print_scan.o (strlen)
/opt/Freescale/KDS_3.0.0/toolchain/bin/../lib/gcc/arm-none-eabi/4.8.4/../../../../arm-none-eabi/lib/armv7e-m/fpu/libg_s.a(lib_a-vfprintf.o)
                              /opt/Freescale/KDS_3.0.0/toolchain/bin/../lib/gcc/arm-none-eabi/4.8.4/../../../../arm-none-eabi/lib/armv7e-m/fpu/libg_s.a(lib_a-fprintf.o) (_vfprintf_r)
/opt/Freescale/KDS_3.0.0/toolchain/bin/../lib/gcc/arm-none-eabi/4.8.4/../../../../arm-none-eabi/lib/armv7e-m/fpu/libg_s.a(lib_a-vfprintf_i.o)
                              /opt/Freescale/KDS_3.0.0/toolchain/bin/../lib/gcc/arm-none-eabi/4.8.4/../../../../arm-none-eabi/lib/armv7e-m/fpu/libg_s.a(lib_a-vfprintf.o) (_printf_i)
/opt/Freescale/KDS_3.0.0/toolchain/bin/../lib/gcc/arm-none-eabi/4.8.4/../../../../arm-none-eabi/lib/armv7e-m/fpu/libg_s.a(lib_a-wbuf.o)
                              /opt/Freescale/KDS_3.0.0/toolchain/bin/../lib/gcc/arm-none-eabi/4.8.4/../../../../arm-none-eabi/lib/armv7e-m/fpu/libg_s.a(lib_a-vfprintf.o) (__swbuf_r)
/opt/Freescale/KDS_3.0.0/toolchain/bin/../lib/gcc/arm-none-eabi/4.8.4/../../../../arm-none-eabi/lib/armv7e-m/fpu/libg_s.a(lib_a-wsetup.o)
                              /opt/Freescale/KDS_3.0.0/toolchain/bin/../lib/gcc/arm-none-eabi/4.8.4/../../../../arm-none-eabi/lib/armv7e-m/fpu/libg_s.a(lib_a-vfprintf.o) (__swsetup_r)
/opt/Freescale/KDS_3.0.0/toolchain/bin/../lib/gcc/arm-none-eabi/4.8.4/../../../../arm-none-eabi/lib/armv7e-m/fpu/libg_s.a(lib_a-abort.o)
                              /opt/Freescale/KDS_3.0.0/toolchain/bin/../lib/gcc/arm-none-eabi/4.8.4/../../../../arm-none-eabi/lib/armv7e-m/fpu/libg_s.a(lib_a-assert.o) (abort)
/opt/Freescale/KDS_3.0.0/toolchain/bin/../lib/gcc/arm-none-eabi/4.8.4/../../../../arm-none-eabi/lib/armv7e-m/fpu/libg_s.a(lib_a-fflush.o)
                              /opt/Freescale/KDS_3.0.0/toolchain/bin/../lib/gcc/arm-none-eabi/4.8.4/../../../../arm-none-eabi/lib/armv7e-m/fpu/libg_s.a(lib_a-wbuf.o) (_fflush_r)
/opt/Freescale/KDS_3.0.0/toolchain/bin/../lib/gcc/arm-none-eabi/4.8.4/../../../../arm-none-eabi/lib/armv7e-m/fpu/libg_s.a(lib_a-findfp.o)
                              /opt/Freescale/KDS_3.0.0/toolchain/bin/../lib/gcc/arm-none-eabi/4.8.4/../../../../arm-none-eabi/lib/armv7e-m/fpu/libg_s.a(lib_a-vfprintf.o) (__sinit)
/opt/Freescale/KDS_3.0.0/toolchain/bin/../lib/gcc/arm-none-eabi/4.8.4/../../../../arm-none-eabi/lib/armv7e-m/fpu/libg_s.a(lib_a-fvwrite.o)
                              /opt/Freescale/KDS_3.0.0/toolchain/bin/../lib/gcc/arm-none-eabi/4.8.4/../../../../arm-none-eabi/lib/armv7e-m/fpu/libg_s.a(lib_a-vfprintf.o) (__sfvwrite_r)
/opt/Freescale/KDS_3.0.0/toolchain/bin/../lib/gcc/arm-none-eabi/4.8.4/../../../../arm-none-eabi/lib/armv7e-m/fpu/libg_s.a(lib_a-fwalk.o)
                              /opt/Freescale/KDS_3.0.0/toolchain/bin/../lib/gcc/arm-none-eabi/4.8.4/../../../../arm-none-eabi/lib/armv7e-m/fpu/libg_s.a(lib_a-findfp.o) (_fwalk)
/opt/Freescale/KDS_3.0.0/toolchain/bin/../lib/gcc/arm-none-eabi/4.8.4/../../../../arm-none-eabi/lib/armv7e-m/fpu/libg_s.a(lib_a-makebuf.o)
                              /opt/Freescale/KDS_3.0.0/toolchain/bin/../lib/gcc/arm-none-eabi/4.8.4/../../../../arm-none-eabi/lib/armv7e-m/fpu/libg_s.a(lib_a-wsetup.o) (__smakebuf_r)
/opt/Freescale/KDS_3.0.0/toolchain/bin/../lib/gcc/arm-none-eabi/4.8.4/../../../../arm-none-eabi/lib/armv7e-m/fpu/libg_s.a(lib_a-memchr-stub.o)
                              /opt/Freescale/KDS_3.0.0/toolchain/bin/../lib/gcc/arm-none-eabi/4.8.4/../../../../arm-none-eabi/lib/armv7e-m/fpu/libg_s.a(lib_a-vfprintf.o) (memchr)
/opt/Freescale/KDS_3.0.0/toolchain/bin/../lib/gcc/arm-none-eabi/4.8.4/../../../../arm-none-eabi/lib/armv7e-m/fpu/libg_s.a(lib_a-memmove.o)
                              /opt/Freescale/KDS_3.0.0/toolchain/bin/../lib/gcc/arm-none-eabi/4.8.4/../../../../arm-none-eabi/lib/armv7e-m/fpu/libg_s.a(lib_a-fvwrite.o) (memmove)
/opt/Freescale/KDS_3.0.0/toolchain/bin/../lib/gcc/arm-none-eabi/4.8.4/../../../../arm-none-eabi/lib/armv7e-m/fpu/libg_s.a(lib_a-nano-reallocr.o)
                              /opt/Freescale/KDS_3.0.0/toolchain/bin/../lib/gcc/arm-none-eabi/4.8.4/../../../../arm-none-eabi/lib/armv7e-m/fpu/libg_s.a(lib_a-fvwrite.o) (_realloc_r)
/opt/Freescale/KDS_3.0.0/toolchain/bin/../lib/gcc/arm-none-eabi/4.8.4/../../../../arm-none-eabi/lib/armv7e-m/fpu/libg_s.a(lib_a-reent.o)
                              /opt/Freescale/KDS_3.0.0/toolchain/bin/../lib/gcc/arm-none-eabi/4.8.4/../../../../arm-none-eabi/lib/armv7e-m/fpu/libg_s.a(lib_a-sbrkr.o) (errno)
/opt/Freescale/KDS_3.0.0/toolchain/bin/../lib/gcc/arm-none-eabi/4.8.4/../../../../arm-none-eabi/lib/armv7e-m/fpu/libg_s.a(lib_a-signal.o)
                              /opt/Freescale/KDS_3.0.0/toolchain/bin/../lib/gcc/arm-none-eabi/4.8.4/../../../../arm-none-eabi/lib/armv7e-m/fpu/libg_s.a(lib_a-abort.o) (raise)
/opt/Freescale/KDS_3.0.0/toolchain/bin/../lib/gcc/arm-none-eabi/4.8.4/../../../../arm-none-eabi/lib/armv7e-m/fpu/libg_s.a(lib_a-signalr.o)
                              /opt/Freescale/KDS_3.0.0/toolchain/bin/../lib/gcc/arm-none-eabi/4.8.4/../../../../arm-none-eabi/lib/armv7e-m/fpu/libg_s.a(lib_a-signal.o) (_kill_r)
/opt/Freescale/KDS_3.0.0/toolchain/bin/../lib/gcc/arm-none-eabi/4.8.4/../../../../arm-none-eabi/lib/armv7e-m/fpu/libg_s.a(lib_a-stdio.o)
                              /opt/Freescale/KDS_3.0.0/toolchain/bin/../lib/gcc/arm-none-eabi/4.8.4/../../../../arm-none-eabi/lib/armv7e-m/fpu/libg_s.a(lib_a-findfp.o) (__sread)
/opt/Freescale/KDS_3.0.0/toolchain/bin/../lib/gcc/arm-none-eabi/4.8.4/../../../../arm-none-eabi/lib/armv7e-m/fpu/libg_s.a(lib_a-writer.o)
                              /opt/Freescale/KDS_3.0.0/toolchain/bin/../lib/gcc/arm-none-eabi/4.8.4/../../../../arm-none-eabi/lib/armv7e-m/fpu/libg_s.a(lib_a-stdio.o) (_write_r)
/opt/Freescale/KDS_3.0.0/toolchain/bin/../lib/gcc/arm-none-eabi/4.8.4/../../../../arm-none-eabi/lib/armv7e-m/fpu/libg_s.a(lib_a-closer.o)
                              /opt/Freescale/KDS_3.0.0/toolchain/bin/../lib/gcc/arm-none-eabi/4.8.4/../../../../arm-none-eabi/lib/armv7e-m/fpu/libg_s.a(lib_a-stdio.o) (_close_r)
/opt/Freescale/KDS_3.0.0/toolchain/bin/../lib/gcc/arm-none-eabi/4.8.4/../../../../arm-none-eabi/lib/armv7e-m/fpu/libg_s.a(lib_a-fstatr.o)
                              /opt/Freescale/KDS_3.0.0/toolchain/bin/../lib/gcc/arm-none-eabi/4.8.4/../../../../arm-none-eabi/lib/armv7e-m/fpu/libg_s.a(lib_a-makebuf.o) (_fstat_r)
/opt/Freescale/KDS_3.0.0/toolchain/bin/../lib/gcc/arm-none-eabi/4.8.4/../../../../arm-none-eabi/lib/armv7e-m/fpu/libg_s.a(lib_a-isattyr.o)
                              /opt/Freescale/KDS_3.0.0/toolchain/bin/../lib/gcc/arm-none-eabi/4.8.4/../../../../arm-none-eabi/lib/armv7e-m/fpu/libg_s.a(lib_a-makebuf.o) (_isatty_r)
/opt/Freescale/KDS_3.0.0/toolchain/bin/../lib/gcc/arm-none-eabi/4.8.4/../../../../arm-none-eabi/lib/armv7e-m/fpu/libg_s.a(lib_a-lseekr.o)
                              /opt/Freescale/KDS_3.0.0/toolchain/bin/../lib/gcc/arm-none-eabi/4.8.4/../../../../arm-none-eabi/lib/armv7e-m/fpu/libg_s.a(lib_a-stdio.o) (_lseek_r)
/opt/Freescale/KDS_3.0.0/toolchain/bin/../lib/gcc/arm-none-eabi/4.8.4/../../../../arm-none-eabi/lib/armv7e-m/fpu/libg_s.a(lib_a-nano-msizer.o)
                              /opt/Freescale/KDS_3.0.0/toolchain/bin/../lib/gcc/arm-none-eabi/4.8.4/../../../../arm-none-eabi/lib/armv7e-m/fpu/libg_s.a(lib_a-nano-reallocr.o) (_malloc_usable_size_r)
/opt/Freescale/KDS_3.0.0/toolchain/bin/../lib/gcc/arm-none-eabi/4.8.4/../../../../arm-none-eabi/lib/armv7e-m/fpu/libg_s.a(lib_a-readr.o)
                              /opt/Freescale/KDS_3.0.0/toolchain/bin/../lib/gcc/arm-none-eabi/4.8.4/../../../../arm-none-eabi/lib/armv7e-m/fpu/libg_s.a(lib_a-stdio.o) (_read_r)
/opt/Freescale/KDS_3.0.0/toolchain/bin/../lib/gcc/arm-none-eabi/4.8.4/../../../../arm-none-eabi/lib/armv7e-m/fpu/libnosys.a(close.o)
                              /opt/Freescale/KDS_3.0.0/toolchain/bin/../lib/gcc/arm-none-eabi/4.8.4/../../../../arm-none-eabi/lib/armv7e-m/fpu/libg_s.a(lib_a-closer.o) (_close)
/opt/Freescale/KDS_3.0.0/toolchain/bin/../lib/gcc/arm-none-eabi/4.8.4/../../../../arm-none-eabi/lib/armv7e-m/fpu/libnosys.a(fstat.o)
                              /opt/Freescale/KDS_3.0.0/toolchain/bin/../lib/gcc/arm-none-eabi/4.8.4/../../../../arm-none-eabi/lib/armv7e-m/fpu/libg_s.a(lib_a-fstatr.o) (_fstat)
/opt/Freescale/KDS_3.0.0/toolchain/bin/../lib/gcc/arm-none-eabi/4.8.4/../../../../arm-none-eabi/lib/armv7e-m/fpu/libnosys.a(getpid.o)
                              /opt/Freescale/KDS_3.0.0/toolchain/bin/../lib/gcc/arm-none-eabi/4.8.4/../../../../arm-none-eabi/lib/armv7e-m/fpu/libg_s.a(lib_a-signalr.o) (_getpid)
/opt/Freescale/KDS_3.0.0/toolchain/bin/../lib/gcc/arm-none-eabi/4.8.4/../../../../arm-none-eabi/lib/armv7e-m/fpu/libnosys.a(isatty.o)
                              /opt/Freescale/KDS_3.0.0/toolchain/bin/../lib/gcc/arm-none-eabi/4.8.4/../../../../arm-none-eabi/lib/armv7e-m/fpu/libg_s.a(lib_a-isattyr.o) (_isatty)
/opt/Freescale/KDS_3.0.0/toolchain/bin/../lib/gcc/arm-none-eabi/4.8.4/../../../../arm-none-eabi/lib/armv7e-m/fpu/libnosys.a(kill.o)
                              /opt/Freescale/KDS_3.0.0/toolchain/bin/../lib/gcc/arm-none-eabi/4.8.4/../../../../arm-none-eabi/lib/armv7e-m/fpu/libg_s.a(lib_a-signalr.o) (_kill)
/opt/Freescale/KDS_3.0.0/toolchain/bin/../lib/gcc/arm-none-eabi/4.8.4/../../../../arm-none-eabi/lib/armv7e-m/fpu/libnosys.a(lseek.o)
                              /opt/Freescale/KDS_3.0.0/toolchain/bin/../lib/gcc/arm-none-eabi/4.8.4/../../../../arm-none-eabi/lib/armv7e-m/fpu/libg_s.a(lib_a-lseekr.o) (_lseek)
/opt/Freescale/KDS_3.0.0/toolchain/bin/../lib/gcc/arm-none-eabi/4.8.4/../../../../arm-none-eabi/lib/armv7e-m/fpu/libnosys.a(_exit.o)
                              /opt/Freescale/KDS_3.0.0/toolchain/bin/../lib/gcc/arm-none-eabi/4.8.4/../../../../arm-none-eabi/lib/armv7e-m/fpu/libg_s.a(lib_a-exit.o) (_exit)

Allocating common symbols
Common symbol       size              file

errno               0x4               /opt/Freescale/KDS_3.0.0/toolchain/bin/../lib/gcc/arm-none-eabi/4.8.4/../../../../arm-none-eabi/lib/armv7e-m/fpu/libg_s.a(lib_a-reent.o)

Discarded input sections

 .text          0x00000000        0x0 /opt/Freescale/KDS_3.0.0/toolchain/bin/../lib/gcc/arm-none-eabi/4.8.4/armv7e-m/fpu/crti.o
 .data          0x00000000        0x0 /opt/Freescale/KDS_3.0.0/toolchain/bin/../lib/gcc/arm-none-eabi/4.8.4/armv7e-m/fpu/crti.o
 .bss           0x00000000        0x0 /opt/Freescale/KDS_3.0.0/toolchain/bin/../lib/gcc/arm-none-eabi/4.8.4/armv7e-m/fpu/crti.o
 .data          0x00000000        0x4 /opt/Freescale/KDS_3.0.0/toolchain/bin/../lib/gcc/arm-none-eabi/4.8.4/armv7e-m/fpu/crtbegin.o
 .data          0x00000000        0x0 /opt/Freescale/KDS_3.0.0/toolchain/bin/../lib/gcc/arm-none-eabi/4.8.4/../../../../arm-none-eabi/lib/armv7e-m/fpu/crt0.o
 .bss           0x00000000        0x0 /opt/Freescale/KDS_3.0.0/toolchain/bin/../lib/gcc/arm-none-eabi/4.8.4/../../../../arm-none-eabi/lib/armv7e-m/fpu/crt0.o
 .ARM.extab     0x00000000        0x0 /opt/Freescale/KDS_3.0.0/toolchain/bin/../lib/gcc/arm-none-eabi/4.8.4/../../../../arm-none-eabi/lib/armv7e-m/fpu/crt0.o
 .text          0x00000000        0x0 ./utilities/fsl_debug_console.o
 .data          0x00000000        0x0 ./utilities/fsl_debug_console.o
 .bss           0x00000000        0x0 ./utilities/fsl_debug_console.o
 .text.DbgConsole_DeInit
                0x00000000       0x20 ./utilities/fsl_debug_console.o
 .text.debug_putchar
                0x00000000       0x1c ./utilities/fsl_debug_console.o
 .text.debug_getchar
                0x00000000       0x28 ./utilities/fsl_debug_console.o
 .text.debug_scanf
                0x00000000       0x68 ./utilities/fsl_debug_console.o
 .text          0x00000000        0x0 ./utilities/fsl_misc_utilities.o
 .data          0x00000000        0x0 ./utilities/fsl_misc_utilities.o
 .bss           0x00000000        0x0 ./utilities/fsl_misc_utilities.o
 .text.assert_func
                0x00000000       0x1c ./utilities/fsl_misc_utilities.o
 .rodata.str1.1
                0x00000000       0x3e ./utilities/fsl_misc_utilities.o
 .text          0x00000000        0x0 ./utilities/print_scan.o
 .data          0x00000000        0x0 ./utilities/print_scan.o
 .bss           0x00000000        0x0 ./utilities/print_scan.o
 .text.scan_ignore_white_space
                0x00000000       0x22 ./utilities/print_scan.o
 .text._sputc   0x00000000        0xa ./utilities/print_scan.o
 .text.scan_prv
                0x00000000      0x306 ./utilities/print_scan.o
 .text          0x00000000        0x0 ./startup/startup.o
 .data          0x00000000        0x0 ./startup/startup.o
 .bss           0x00000000        0x0 ./startup/startup.o
 .data          0x00000000        0x0 ./startup/startup_MK64F12.o
 .bss           0x00000000        0x0 ./startup/startup_MK64F12.o
 .text          0x00000000        0x0 ./startup/system_MK64F12.o
 .data          0x00000000        0x0 ./startup/system_MK64F12.o
 .bss           0x00000000        0x0 ./startup/system_MK64F12.o
 .text.SystemCoreClockUpdate
                0x00000000      0x170 ./startup/system_MK64F12.o
 .text          0x00000000        0x0 ./sources/keyboard.o
 .data          0x00000000        0x0 ./sources/keyboard.o
 .bss           0x00000000        0x0 ./sources/keyboard.o
 .text.APP_task
                0x00000000        0x4 ./sources/keyboard.o
 .data.g_key_index
                0x00000000        0x1 ./sources/keyboard.o
 .bss.sendBufferRead
                0x00000000        0x4 ./sources/keyboard.o
 .bss.g_new_key_pressed
                0x00000000        0x1 ./sources/keyboard.o
 .data.bufferCounter
                0x00000000        0x4 ./sources/keyboard.o
 .bss.sendBuffer
                0x00000000      0x200 ./sources/keyboard.o
 .bss.sendBufferWrite
                0x00000000        0x4 ./sources/keyboard.o
 .data.rowSizes
                0x00000000       0x20 ./sources/keyboard.o
 .text          0x00000000        0x0 ./sources/usb_descriptor.o
 .data          0x00000000        0x0 ./sources/usb_descriptor.o
 .bss           0x00000000        0x0 ./sources/usb_descriptor.o
 .text.updateKeys
                0x00000000       0xbe ./sources/usb_descriptor.o
 .data.g_valid_config_values
                0x00000000        0x2 ./sources/usb_descriptor.o
 .text          0x00000000        0x0 ./board/board.o
 .data          0x00000000        0x0 ./board/board.o
 .bss           0x00000000        0x0 ./board/board.o
 .rodata.g_defaultClockConfigVlpr
                0x00000000       0x16 ./board/board.o
 .text          0x00000000        0x0 ./board/gpio_pins.o
 .data          0x00000000        0x0 ./board/gpio_pins.o
 .bss           0x00000000        0x0 ./board/gpio_pins.o
 .rodata.sdhcCdPin
                0x00000000       0x18 ./board/gpio_pins.o
 .data.switchPins
                0x00000000       0x24 ./board/gpio_pins.o
 .text          0x00000000        0x0 ./board/hardware_init.o
 .data          0x00000000        0x0 ./board/hardware_init.o
 .bss           0x00000000        0x0 ./board/hardware_init.o
 .text          0x00000000        0x0 ./board/pin_mux.o
 .data          0x00000000        0x0 ./board/pin_mux.o
 .bss           0x00000000        0x0 ./board/pin_mux.o
 .text.unlikely.PORT_HAL_SetMuxMode.part.0
                0x00000000       0x1c ./board/pin_mux.o
 .text.unlikely.PORT_HAL_SetOpenDrainCmd.part.1
                0x00000000       0x1c ./board/pin_mux.o
 .text.unlikely.PORT_HAL_SetPullMode.part.2
                0x00000000       0x1c ./board/pin_mux.o
 .text.unlikely.PORT_HAL_SetPullCmd.part.3
                0x00000000       0x1c ./board/pin_mux.o
 .text.unlikely.PORT_HAL_SetPassiveFilterCmd.part.4
                0x00000000       0x1c ./board/pin_mux.o
 .text.unlikely.PORT_HAL_SetDriveStrengthMode.part.5
                0x00000000       0x1c ./board/pin_mux.o
 .text.unlikely.PORT_HAL_SetSlewRateMode.part.6
                0x00000000       0x1c ./board/pin_mux.o
 .text.configure_can_pins
                0x00000000       0x28 ./board/pin_mux.o
 .text.configure_cmp_pins
                0x00000000       0x2c ./board/pin_mux.o
 .text.configure_enet_pins
                0x00000000      0x100 ./board/pin_mux.o
 .text.configure_gpio_pins
                0x00000000      0x124 ./board/pin_mux.o
 .text.configure_i2c_pins
                0x00000000       0x7c ./board/pin_mux.o
 .text.configure_i2s_pins
                0x00000000       0x80 ./board/pin_mux.o
 .text.configure_rtc_pins
                0x00000000       0x18 ./board/pin_mux.o
 .text.configure_sdhc_pins
                0x00000000       0xb4 ./board/pin_mux.o
 .text.configure_spi_pins
                0x00000000       0x94 ./board/pin_mux.o
 .text.configure_spi_cs0_pins
                0x00000000       0x18 ./board/pin_mux.o
 .text.configure_spi_cs1_pins
                0x00000000       0x18 ./board/pin_mux.o
 .text.configure_gpio_i2c_pins
                0x00000000       0x28 ./board/pin_mux.o
 .text.configure_ftm_pins
                0x00000000       0x1c ./board/pin_mux.o
 .rodata.__func__.6099
                0x00000000       0x1e ./board/pin_mux.o
 .rodata.__func__.6105
                0x00000000       0x14 ./board/pin_mux.o
 .rodata.str1.1
                0x00000000       0x48 ./board/pin_mux.o
 .rodata.__func__.6069
                0x00000000       0x15 ./board/pin_mux.o
 .rodata.__func__.6075
                0x00000000       0x14 ./board/pin_mux.o
 .rodata.__func__.6081
                0x00000000       0x19 ./board/pin_mux.o
 .rodata.__func__.6087
                0x00000000       0x1d ./board/pin_mux.o
 .rodata.__func__.6093
                0x00000000       0x19 ./board/pin_mux.o
 .text          0x00000000        0x0 /opt/Freescale/KSDK_1.2.0/examples/frdmk64f/demo_apps/usb/device/hid/hhkb/bm/kds/../../../../../../../../../usb/usb_core/device/build/kds/usbd_sdk_frdmk64f_bm/debug/libusbd_bm.a(usb_hid.o)
 .data          0x00000000        0x0 /opt/Freescale/KSDK_1.2.0/examples/frdmk64f/demo_apps/usb/device/hid/hhkb/bm/kds/../../../../../../../../../usb/usb_core/device/build/kds/usbd_sdk_frdmk64f_bm/debug/libusbd_bm.a(usb_hid.o)
 .bss           0x00000000        0x0 /opt/Freescale/KSDK_1.2.0/examples/frdmk64f/demo_apps/usb/device/hid/hhkb/bm/kds/../../../../../../../../../usb/usb_core/device/build/kds/usbd_sdk_frdmk64f_bm/debug/libusbd_bm.a(usb_hid.o)
 .text.USB_Class_HID_Deinit
                0x00000000       0x28 /opt/Freescale/KSDK_1.2.0/examples/frdmk64f/demo_apps/usb/device/hid/hhkb/bm/kds/../../../../../../../../../usb/usb_core/device/build/kds/usbd_sdk_frdmk64f_bm/debug/libusbd_bm.a(usb_hid.o)
 .text.USB_Class_HID_Cancel
                0x00000000        0xc /opt/Freescale/KSDK_1.2.0/examples/frdmk64f/demo_apps/usb/device/hid/hhkb/bm/kds/../../../../../../../../../usb/usb_core/device/build/kds/usbd_sdk_frdmk64f_bm/debug/libusbd_bm.a(usb_hid.o)
 .text.USB_Class_HID_Recv_Data
                0x00000000        0xc /opt/Freescale/KSDK_1.2.0/examples/frdmk64f/demo_apps/usb/device/hid/hhkb/bm/kds/../../../../../../../../../usb/usb_core/device/build/kds/usbd_sdk_frdmk64f_bm/debug/libusbd_bm.a(usb_hid.o)
 .text          0x00000000        0x0 /opt/Freescale/KSDK_1.2.0/examples/frdmk64f/demo_apps/usb/device/hid/hhkb/bm/kds/../../../../../../../../../usb/usb_core/device/build/kds/usbd_sdk_frdmk64f_bm/debug/libusbd_bm.a(usb_class.o)
 .data          0x00000000        0x0 /opt/Freescale/KSDK_1.2.0/examples/frdmk64f/demo_apps/usb/device/hid/hhkb/bm/kds/../../../../../../../../../usb/usb_core/device/build/kds/usbd_sdk_frdmk64f_bm/debug/libusbd_bm.a(usb_class.o)
 .bss           0x00000000        0x0 /opt/Freescale/KSDK_1.2.0/examples/frdmk64f/demo_apps/usb/device/hid/hhkb/bm/kds/../../../../../../../../../usb/usb_core/device/build/kds/usbd_sdk_frdmk64f_bm/debug/libusbd_bm.a(usb_class.o)
 .text.USB_Class_Deinit
                0x00000000       0x1c /opt/Freescale/KSDK_1.2.0/examples/frdmk64f/demo_apps/usb/device/hid/hhkb/bm/kds/../../../../../../../../../usb/usb_core/device/build/kds/usbd_sdk_frdmk64f_bm/debug/libusbd_bm.a(usb_class.o)
 .text.USB_Class_Periodic_Task
                0x00000000        0xc /opt/Freescale/KSDK_1.2.0/examples/frdmk64f/demo_apps/usb/device/hid/hhkb/bm/kds/../../../../../../../../../usb/usb_core/device/build/kds/usbd_sdk_frdmk64f_bm/debug/libusbd_bm.a(usb_class.o)
 .rodata.str1.1
                0x00000000        0x9 /opt/Freescale/KSDK_1.2.0/examples/frdmk64f/demo_apps/usb/device/hid/hhkb/bm/kds/../../../../../../../../../usb/usb_core/device/build/kds/usbd_sdk_frdmk64f_bm/debug/libusbd_bm.a(usb_class.o)
 .text          0x00000000        0x0 /opt/Freescale/KSDK_1.2.0/examples/frdmk64f/demo_apps/usb/device/hid/hhkb/bm/kds/../../../../../../../../../usb/usb_core/device/build/kds/usbd_sdk_frdmk64f_bm/debug/libusbd_bm.a(usb_dev.o)
 .data          0x00000000        0x0 /opt/Freescale/KSDK_1.2.0/examples/frdmk64f/demo_apps/usb/device/hid/hhkb/bm/kds/../../../../../../../../../usb/usb_core/device/build/kds/usbd_sdk_frdmk64f_bm/debug/libusbd_bm.a(usb_dev.o)
 .bss           0x00000000        0x0 /opt/Freescale/KSDK_1.2.0/examples/frdmk64f/demo_apps/usb/device/hid/hhkb/bm/kds/../../../../../../../../../usb/usb_core/device/build/kds/usbd_sdk_frdmk64f_bm/debug/libusbd_bm.a(usb_dev.o)
 .text.usb_device_deinit
                0x00000000       0x3c /opt/Freescale/KSDK_1.2.0/examples/frdmk64f/demo_apps/usb/device/hid/hhkb/bm/kds/../../../../../../../../../usb/usb_core/device/build/kds/usbd_sdk_frdmk64f_bm/debug/libusbd_bm.a(usb_dev.o)
 .text.usb_device_unregister_service
                0x00000000       0x4a /opt/Freescale/KSDK_1.2.0/examples/frdmk64f/demo_apps/usb/device/hid/hhkb/bm/kds/../../../../../../../../../usb/usb_core/device/build/kds/usbd_sdk_frdmk64f_bm/debug/libusbd_bm.a(usb_dev.o)
 .text.usb_device_deinit_endpoint
                0x00000000       0x3c /opt/Freescale/KSDK_1.2.0/examples/frdmk64f/demo_apps/usb/device/hid/hhkb/bm/kds/../../../../../../../../../usb/usb_core/device/build/kds/usbd_sdk_frdmk64f_bm/debug/libusbd_bm.a(usb_dev.o)
 .text.usb_device_cancel_transfer
                0x00000000       0x50 /opt/Freescale/KSDK_1.2.0/examples/frdmk64f/demo_apps/usb/device/hid/hhkb/bm/kds/../../../../../../../../../usb/usb_core/device/build/kds/usbd_sdk_frdmk64f_bm/debug/libusbd_bm.a(usb_dev.o)
 .text          0x00000000        0x0 /opt/Freescale/KSDK_1.2.0/examples/frdmk64f/demo_apps/usb/device/hid/hhkb/bm/kds/../../../../../../../../../usb/usb_core/device/build/kds/usbd_sdk_frdmk64f_bm/debug/libusbd_bm.a(usb_framework.o)
 .data          0x00000000        0x0 /opt/Freescale/KSDK_1.2.0/examples/frdmk64f/demo_apps/usb/device/hid/hhkb/bm/kds/../../../../../../../../../usb/usb_core/device/build/kds/usbd_sdk_frdmk64f_bm/debug/libusbd_bm.a(usb_framework.o)
 .bss           0x00000000        0x0 /opt/Freescale/KSDK_1.2.0/examples/frdmk64f/demo_apps/usb/device/hid/hhkb/bm/kds/../../../../../../../../../usb/usb_core/device/build/kds/usbd_sdk_frdmk64f_bm/debug/libusbd_bm.a(usb_framework.o)
 .text.USB_Framework_Reset
                0x00000000        0x4 /opt/Freescale/KSDK_1.2.0/examples/frdmk64f/demo_apps/usb/device/hid/hhkb/bm/kds/../../../../../../../../../usb/usb_core/device/build/kds/usbd_sdk_frdmk64f_bm/debug/libusbd_bm.a(usb_framework.o)
 .text          0x00000000        0x0 /opt/Freescale/KSDK_1.2.0/examples/frdmk64f/demo_apps/usb/device/hid/hhkb/bm/kds/../../../../../../../../../usb/usb_core/device/build/kds/usbd_sdk_frdmk64f_bm/debug/libusbd_bm.a(usb_dev_bsp.o)
 .data          0x00000000        0x0 /opt/Freescale/KSDK_1.2.0/examples/frdmk64f/demo_apps/usb/device/hid/hhkb/bm/kds/../../../../../../../../../usb/usb_core/device/build/kds/usbd_sdk_frdmk64f_bm/debug/libusbd_bm.a(usb_dev_bsp.o)
 .bss           0x00000000        0x0 /opt/Freescale/KSDK_1.2.0/examples/frdmk64f/demo_apps/usb/device/hid/hhkb/bm/kds/../../../../../../../../../usb/usb_core/device/build/kds/usbd_sdk_frdmk64f_bm/debug/libusbd_bm.a(usb_dev_bsp.o)
 .text          0x00000000        0x0 /opt/Freescale/KSDK_1.2.0/examples/frdmk64f/demo_apps/usb/device/hid/hhkb/bm/kds/../../../../../../../../../usb/usb_core/device/build/kds/usbd_sdk_frdmk64f_bm/debug/libusbd_bm.a(adapter_sdk.o)
 .data          0x00000000        0x0 /opt/Freescale/KSDK_1.2.0/examples/frdmk64f/demo_apps/usb/device/hid/hhkb/bm/kds/../../../../../../../../../usb/usb_core/device/build/kds/usbd_sdk_frdmk64f_bm/debug/libusbd_bm.a(adapter_sdk.o)
 .bss           0x00000000        0x0 /opt/Freescale/KSDK_1.2.0/examples/frdmk64f/demo_apps/usb/device/hid/hhkb/bm/kds/../../../../../../../../../usb/usb_core/device/build/kds/usbd_sdk_frdmk64f_bm/debug/libusbd_bm.a(adapter_sdk.o)
 .text.OS_Gpio_init
                0x00000000        0x6 /opt/Freescale/KSDK_1.2.0/examples/frdmk64f/demo_apps/usb/device/hid/hhkb/bm/kds/../../../../../../../../../usb/usb_core/device/build/kds/usbd_sdk_frdmk64f_bm/debug/libusbd_bm.a(adapter_sdk.o)
 .text.OS_Gpio_set_functionality
                0x00000000        0x4 /opt/Freescale/KSDK_1.2.0/examples/frdmk64f/demo_apps/usb/device/hid/hhkb/bm/kds/../../../../../../../../../usb/usb_core/device/build/kds/usbd_sdk_frdmk64f_bm/debug/libusbd_bm.a(adapter_sdk.o)
 .text.OS_Gpio_set_value
                0x00000000        0x4 /opt/Freescale/KSDK_1.2.0/examples/frdmk64f/demo_apps/usb/device/hid/hhkb/bm/kds/../../../../../../../../../usb/usb_core/device/build/kds/usbd_sdk_frdmk64f_bm/debug/libusbd_bm.a(adapter_sdk.o)
 .text.OS_Gpio_deinit
                0x00000000        0x4 /opt/Freescale/KSDK_1.2.0/examples/frdmk64f/demo_apps/usb/device/hid/hhkb/bm/kds/../../../../../../../../../usb/usb_core/device/build/kds/usbd_sdk_frdmk64f_bm/debug/libusbd_bm.a(adapter_sdk.o)
 .text.OS_Task_create
                0x00000000       0x2a /opt/Freescale/KSDK_1.2.0/examples/frdmk64f/demo_apps/usb/device/hid/hhkb/bm/kds/../../../../../../../../../usb/usb_core/device/build/kds/usbd_sdk_frdmk64f_bm/debug/libusbd_bm.a(adapter_sdk.o)
 .text.OS_Task_delete
                0x00000000       0x10 /opt/Freescale/KSDK_1.2.0/examples/frdmk64f/demo_apps/usb/device/hid/hhkb/bm/kds/../../../../../../../../../usb/usb_core/device/build/kds/usbd_sdk_frdmk64f_bm/debug/libusbd_bm.a(adapter_sdk.o)
 .text.OS_Event_create
                0x00000000       0x2a /opt/Freescale/KSDK_1.2.0/examples/frdmk64f/demo_apps/usb/device/hid/hhkb/bm/kds/../../../../../../../../../usb/usb_core/device/build/kds/usbd_sdk_frdmk64f_bm/debug/libusbd_bm.a(adapter_sdk.o)
 .text.OS_Event_destroy
                0x00000000       0x1c /opt/Freescale/KSDK_1.2.0/examples/frdmk64f/demo_apps/usb/device/hid/hhkb/bm/kds/../../../../../../../../../usb/usb_core/device/build/kds/usbd_sdk_frdmk64f_bm/debug/libusbd_bm.a(adapter_sdk.o)
 .text.OS_MsgQ_create
                0x00000000       0x34 /opt/Freescale/KSDK_1.2.0/examples/frdmk64f/demo_apps/usb/device/hid/hhkb/bm/kds/../../../../../../../../../usb/usb_core/device/build/kds/usbd_sdk_frdmk64f_bm/debug/libusbd_bm.a(adapter_sdk.o)
 .text.OS_MsgQ_destroy
                0x00000000       0x1c /opt/Freescale/KSDK_1.2.0/examples/frdmk64f/demo_apps/usb/device/hid/hhkb/bm/kds/../../../../../../../../../usb/usb_core/device/build/kds/usbd_sdk_frdmk64f_bm/debug/libusbd_bm.a(adapter_sdk.o)
 .text.OS_Sem_create
                0x00000000       0x24 /opt/Freescale/KSDK_1.2.0/examples/frdmk64f/demo_apps/usb/device/hid/hhkb/bm/kds/../../../../../../../../../usb/usb_core/device/build/kds/usbd_sdk_frdmk64f_bm/debug/libusbd_bm.a(adapter_sdk.o)
 .text.OS_Sem_destroy
                0x00000000       0x1c /opt/Freescale/KSDK_1.2.0/examples/frdmk64f/demo_apps/usb/device/hid/hhkb/bm/kds/../../../../../../../../../usb/usb_core/device/build/kds/usbd_sdk_frdmk64f_bm/debug/libusbd_bm.a(adapter_sdk.o)
 .text.OS_Event_check_bit
                0x00000000        0xc /opt/Freescale/KSDK_1.2.0/examples/frdmk64f/demo_apps/usb/device/hid/hhkb/bm/kds/../../../../../../../../../usb/usb_core/device/build/kds/usbd_sdk_frdmk64f_bm/debug/libusbd_bm.a(adapter_sdk.o)
 .text.OS_Event_set
                0x00000000       0x10 /opt/Freescale/KSDK_1.2.0/examples/frdmk64f/demo_apps/usb/device/hid/hhkb/bm/kds/../../../../../../../../../usb/usb_core/device/build/kds/usbd_sdk_frdmk64f_bm/debug/libusbd_bm.a(adapter_sdk.o)
 .text.OS_Event_clear
                0x00000000       0x10 /opt/Freescale/KSDK_1.2.0/examples/frdmk64f/demo_apps/usb/device/hid/hhkb/bm/kds/../../../../../../../../../usb/usb_core/device/build/kds/usbd_sdk_frdmk64f_bm/debug/libusbd_bm.a(adapter_sdk.o)
 .text.OS_Event_wait
                0x00000000       0x38 /opt/Freescale/KSDK_1.2.0/examples/frdmk64f/demo_apps/usb/device/hid/hhkb/bm/kds/../../../../../../../../../usb/usb_core/device/build/kds/usbd_sdk_frdmk64f_bm/debug/libusbd_bm.a(adapter_sdk.o)
 .text.OS_Sem_post
                0x00000000       0x10 /opt/Freescale/KSDK_1.2.0/examples/frdmk64f/demo_apps/usb/device/hid/hhkb/bm/kds/../../../../../../../../../usb/usb_core/device/build/kds/usbd_sdk_frdmk64f_bm/debug/libusbd_bm.a(adapter_sdk.o)
 .text.OS_Sem_wait
                0x00000000       0x22 /opt/Freescale/KSDK_1.2.0/examples/frdmk64f/demo_apps/usb/device/hid/hhkb/bm/kds/../../../../../../../../../usb/usb_core/device/build/kds/usbd_sdk_frdmk64f_bm/debug/libusbd_bm.a(adapter_sdk.o)
 .text.OS_MsgQ_recv
                0x00000000       0x26 /opt/Freescale/KSDK_1.2.0/examples/frdmk64f/demo_apps/usb/device/hid/hhkb/bm/kds/../../../../../../../../../usb/usb_core/device/build/kds/usbd_sdk_frdmk64f_bm/debug/libusbd_bm.a(adapter_sdk.o)
 .text.OS_MsgQ_send
                0x00000000       0x10 /opt/Freescale/KSDK_1.2.0/examples/frdmk64f/demo_apps/usb/device/hid/hhkb/bm/kds/../../../../../../../../../usb/usb_core/device/build/kds/usbd_sdk_frdmk64f_bm/debug/libusbd_bm.a(adapter_sdk.o)
 .text.OS_MsgQ_Is_Empty
                0x00000000       0x10 /opt/Freescale/KSDK_1.2.0/examples/frdmk64f/demo_apps/usb/device/hid/hhkb/bm/kds/../../../../../../../../../usb/usb_core/device/build/kds/usbd_sdk_frdmk64f_bm/debug/libusbd_bm.a(adapter_sdk.o)
 .text          0x00000000        0x0 /opt/Freescale/KSDK_1.2.0/examples/frdmk64f/demo_apps/usb/device/hid/hhkb/bm/kds/../../../../../../../../../usb/usb_core/device/build/kds/usbd_sdk_frdmk64f_bm/debug/libusbd_bm.a(device_khci_interface.o)
 .data          0x00000000        0x0 /opt/Freescale/KSDK_1.2.0/examples/frdmk64f/demo_apps/usb/device/hid/hhkb/bm/kds/../../../../../../../../../usb/usb_core/device/build/kds/usbd_sdk_frdmk64f_bm/debug/libusbd_bm.a(device_khci_interface.o)
 .bss           0x00000000        0x0 /opt/Freescale/KSDK_1.2.0/examples/frdmk64f/demo_apps/usb/device/hid/hhkb/bm/kds/../../../../../../../../../usb/usb_core/device/build/kds/usbd_sdk_frdmk64f_bm/debug/libusbd_bm.a(device_khci_interface.o)
 .text          0x00000000        0x0 /opt/Freescale/KSDK_1.2.0/examples/frdmk64f/demo_apps/usb/device/hid/hhkb/bm/kds/../../../../../../../../../usb/usb_core/device/build/kds/usbd_sdk_frdmk64f_bm/debug/libusbd_bm.a(khci_dev.o)
 .data          0x00000000        0x0 /opt/Freescale/KSDK_1.2.0/examples/frdmk64f/demo_apps/usb/device/hid/hhkb/bm/kds/../../../../../../../../../usb/usb_core/device/build/kds/usbd_sdk_frdmk64f_bm/debug/libusbd_bm.a(khci_dev.o)
 .bss           0x00000000        0x0 /opt/Freescale/KSDK_1.2.0/examples/frdmk64f/demo_apps/usb/device/hid/hhkb/bm/kds/../../../../../../../../../usb/usb_core/device/build/kds/usbd_sdk_frdmk64f_bm/debug/libusbd_bm.a(khci_dev.o)
 .text          0x00000000        0x0 /opt/Freescale/KSDK_1.2.0/examples/frdmk64f/demo_apps/usb/device/hid/hhkb/bm/kds/../../../../../../../../../lib/ksdk_platform_lib/kds/K64F12/debug/libksdk_platform.a(fsl_uart_hal.o)
 .data          0x00000000        0x0 /opt/Freescale/KSDK_1.2.0/examples/frdmk64f/demo_apps/usb/device/hid/hhkb/bm/kds/../../../../../../../../../lib/ksdk_platform_lib/kds/K64F12/debug/libksdk_platform.a(fsl_uart_hal.o)
 .bss           0x00000000        0x0 /opt/Freescale/KSDK_1.2.0/examples/frdmk64f/demo_apps/usb/device/hid/hhkb/bm/kds/../../../../../../../../../lib/ksdk_platform_lib/kds/K64F12/debug/libksdk_platform.a(fsl_uart_hal.o)
 .text.UART_HAL_Init
                0x00000000       0x2a /opt/Freescale/KSDK_1.2.0/examples/frdmk64f/demo_apps/usb/device/hid/hhkb/bm/kds/../../../../../../../../../lib/ksdk_platform_lib/kds/K64F12/debug/libksdk_platform.a(fsl_uart_hal.o)
 .text.UART_HAL_SetBaudRateDivisor
                0x00000000       0x38 /opt/Freescale/KSDK_1.2.0/examples/frdmk64f/demo_apps/usb/device/hid/hhkb/bm/kds/../../../../../../../../../lib/ksdk_platform_lib/kds/K64F12/debug/libksdk_platform.a(fsl_uart_hal.o)
 .text.UART_HAL_Putchar
                0x00000000        0x6 /opt/Freescale/KSDK_1.2.0/examples/frdmk64f/demo_apps/usb/device/hid/hhkb/bm/kds/../../../../../../../../../lib/ksdk_platform_lib/kds/K64F12/debug/libksdk_platform.a(fsl_uart_hal.o)
 .text.UART_HAL_Putchar9
                0x00000000       0x16 /opt/Freescale/KSDK_1.2.0/examples/frdmk64f/demo_apps/usb/device/hid/hhkb/bm/kds/../../../../../../../../../lib/ksdk_platform_lib/kds/K64F12/debug/libksdk_platform.a(fsl_uart_hal.o)
 .text.UART_HAL_Getchar
                0x00000000        0x8 /opt/Freescale/KSDK_1.2.0/examples/frdmk64f/demo_apps/usb/device/hid/hhkb/bm/kds/../../../../../../../../../lib/ksdk_platform_lib/kds/K64F12/debug/libksdk_platform.a(fsl_uart_hal.o)
 .text.UART_HAL_Getchar9
                0x00000000       0x18 /opt/Freescale/KSDK_1.2.0/examples/frdmk64f/demo_apps/usb/device/hid/hhkb/bm/kds/../../../../../../../../../lib/ksdk_platform_lib/kds/K64F12/debug/libksdk_platform.a(fsl_uart_hal.o)
 .text.UART_HAL_SetIntMode
                0x00000000       0x68 /opt/Freescale/KSDK_1.2.0/examples/frdmk64f/demo_apps/usb/device/hid/hhkb/bm/kds/../../../../../../../../../lib/ksdk_platform_lib/kds/K64F12/debug/libksdk_platform.a(fsl_uart_hal.o)
 .text.UART_HAL_GetIntMode
                0x00000000       0x2a /opt/Freescale/KSDK_1.2.0/examples/frdmk64f/demo_apps/usb/device/hid/hhkb/bm/kds/../../../../../../../../../lib/ksdk_platform_lib/kds/K64F12/debug/libksdk_platform.a(fsl_uart_hal.o)
 .text.UART_HAL_SetTxDmaCmd
                0x00000000       0x32 /opt/Freescale/KSDK_1.2.0/examples/frdmk64f/demo_apps/usb/device/hid/hhkb/bm/kds/../../../../../../../../../lib/ksdk_platform_lib/kds/K64F12/debug/libksdk_platform.a(fsl_uart_hal.o)
 .text.UART_HAL_SetRxDmaCmd
                0x00000000       0x16 /opt/Freescale/KSDK_1.2.0/examples/frdmk64f/demo_apps/usb/device/hid/hhkb/bm/kds/../../../../../../../../../lib/ksdk_platform_lib/kds/K64F12/debug/libksdk_platform.a(fsl_uart_hal.o)
 .text.UART_HAL_SetISO7816IntMode
                0x00000000       0xaa /opt/Freescale/KSDK_1.2.0/examples/frdmk64f/demo_apps/usb/device/hid/hhkb/bm/kds/../../../../../../../../../lib/ksdk_platform_lib/kds/K64F12/debug/libksdk_platform.a(fsl_uart_hal.o)
 .text.UART_HAL_GetISO7816IntMode
                0x00000000       0x70 /opt/Freescale/KSDK_1.2.0/examples/frdmk64f/demo_apps/usb/device/hid/hhkb/bm/kds/../../../../../../../../../lib/ksdk_platform_lib/kds/K64F12/debug/libksdk_platform.a(fsl_uart_hal.o)
 .text.UART_HAL_ClearISO7816InterruptStatus
                0x00000000       0x16 /opt/Freescale/KSDK_1.2.0/examples/frdmk64f/demo_apps/usb/device/hid/hhkb/bm/kds/../../../../../../../../../lib/ksdk_platform_lib/kds/K64F12/debug/libksdk_platform.a(fsl_uart_hal.o)
 .text.UART_HAL_GetISO7816InterruptStatus
                0x00000000       0x12 /opt/Freescale/KSDK_1.2.0/examples/frdmk64f/demo_apps/usb/device/hid/hhkb/bm/kds/../../../../../../../../../lib/ksdk_platform_lib/kds/K64F12/debug/libksdk_platform.a(fsl_uart_hal.o)
 .text.UART_HAL_SetISO7816Etu
                0x00000000       0x54 /opt/Freescale/KSDK_1.2.0/examples/frdmk64f/demo_apps/usb/device/hid/hhkb/bm/kds/../../../../../../../../../lib/ksdk_platform_lib/kds/K64F12/debug/libksdk_platform.a(fsl_uart_hal.o)
 .text.UART_HAL_ResetISO7816WaitTimer
                0x00000000       0x24 /opt/Freescale/KSDK_1.2.0/examples/frdmk64f/demo_apps/usb/device/hid/hhkb/bm/kds/../../../../../../../../../lib/ksdk_platform_lib/kds/K64F12/debug/libksdk_platform.a(fsl_uart_hal.o)
 .text.UART_HAL_ResetISO7816CharacterWaitTimer
                0x00000000       0x24 /opt/Freescale/KSDK_1.2.0/examples/frdmk64f/demo_apps/usb/device/hid/hhkb/bm/kds/../../../../../../../../../lib/ksdk_platform_lib/kds/K64F12/debug/libksdk_platform.a(fsl_uart_hal.o)
 .text.UART_HAL_ResetISO7816BlockWaitTimer
                0x00000000       0x24 /opt/Freescale/KSDK_1.2.0/examples/frdmk64f/demo_apps/usb/device/hid/hhkb/bm/kds/../../../../../../../../../lib/ksdk_platform_lib/kds/K64F12/debug/libksdk_platform.a(fsl_uart_hal.o)
 .text.UART_HAL_GetStatusFlag
                0x00000000       0x2a /opt/Freescale/KSDK_1.2.0/examples/frdmk64f/demo_apps/usb/device/hid/hhkb/bm/kds/../../../../../../../../../lib/ksdk_platform_lib/kds/K64F12/debug/libksdk_platform.a(fsl_uart_hal.o)
 .text.UART_HAL_ClearStatusFlag
                0x00000000       0x64 /opt/Freescale/KSDK_1.2.0/examples/frdmk64f/demo_apps/usb/device/hid/hhkb/bm/kds/../../../../../../../../../lib/ksdk_platform_lib/kds/K64F12/debug/libksdk_platform.a(fsl_uart_hal.o)
 .text.UART_HAL_SetTxFifoCmd
                0x00000000       0x24 /opt/Freescale/KSDK_1.2.0/examples/frdmk64f/demo_apps/usb/device/hid/hhkb/bm/kds/../../../../../../../../../lib/ksdk_platform_lib/kds/K64F12/debug/libksdk_platform.a(fsl_uart_hal.o)
 .text.UART_HAL_SetRxFifoCmd
                0x00000000       0x24 /opt/Freescale/KSDK_1.2.0/examples/frdmk64f/demo_apps/usb/device/hid/hhkb/bm/kds/../../../../../../../../../lib/ksdk_platform_lib/kds/K64F12/debug/libksdk_platform.a(fsl_uart_hal.o)
 .text.UART_HAL_FlushTxFifo
                0x00000000       0x24 /opt/Freescale/KSDK_1.2.0/examples/frdmk64f/demo_apps/usb/device/hid/hhkb/bm/kds/../../../../../../../../../lib/ksdk_platform_lib/kds/K64F12/debug/libksdk_platform.a(fsl_uart_hal.o)
 .text.UART_HAL_FlushRxFifo
                0x00000000       0x24 /opt/Freescale/KSDK_1.2.0/examples/frdmk64f/demo_apps/usb/device/hid/hhkb/bm/kds/../../../../../../../../../lib/ksdk_platform_lib/kds/K64F12/debug/libksdk_platform.a(fsl_uart_hal.o)
 .text.UART_HAL_SetTxFifoWatermark
                0x00000000       0x1a /opt/Freescale/KSDK_1.2.0/examples/frdmk64f/demo_apps/usb/device/hid/hhkb/bm/kds/../../../../../../../../../lib/ksdk_platform_lib/kds/K64F12/debug/libksdk_platform.a(fsl_uart_hal.o)
 .text.UART_HAL_SetRxFifoWatermark
                0x00000000       0x1a /opt/Freescale/KSDK_1.2.0/examples/frdmk64f/demo_apps/usb/device/hid/hhkb/bm/kds/../../../../../../../../../lib/ksdk_platform_lib/kds/K64F12/debug/libksdk_platform.a(fsl_uart_hal.o)
 .text.UART_HAL_PutReceiverInStandbyMode
                0x00000000       0x2c /opt/Freescale/KSDK_1.2.0/examples/frdmk64f/demo_apps/usb/device/hid/hhkb/bm/kds/../../../../../../../../../lib/ksdk_platform_lib/kds/K64F12/debug/libksdk_platform.a(fsl_uart_hal.o)
 .text.UART_HAL_ConfigIdleLineDetect
                0x00000000       0x16 /opt/Freescale/KSDK_1.2.0/examples/frdmk64f/demo_apps/usb/device/hid/hhkb/bm/kds/../../../../../../../../../lib/ksdk_platform_lib/kds/K64F12/debug/libksdk_platform.a(fsl_uart_hal.o)
 .text.UART_HAL_SetMatchAddress
                0x00000000       0x18 /opt/Freescale/KSDK_1.2.0/examples/frdmk64f/demo_apps/usb/device/hid/hhkb/bm/kds/../../../../../../../../../lib/ksdk_platform_lib/kds/K64F12/debug/libksdk_platform.a(fsl_uart_hal.o)
 .text.UART_HAL_SetInfraredOperation
                0x00000000       0x1a /opt/Freescale/KSDK_1.2.0/examples/frdmk64f/demo_apps/usb/device/hid/hhkb/bm/kds/../../../../../../../../../lib/ksdk_platform_lib/kds/K64F12/debug/libksdk_platform.a(fsl_uart_hal.o)
 .rodata.str1.1
                0x00000000       0x73 /opt/Freescale/KSDK_1.2.0/examples/frdmk64f/demo_apps/usb/device/hid/hhkb/bm/kds/../../../../../../../../../lib/ksdk_platform_lib/kds/K64F12/debug/libksdk_platform.a(fsl_uart_hal.o)
 .rodata.__func__.6508
                0x00000000       0x1c /opt/Freescale/KSDK_1.2.0/examples/frdmk64f/demo_apps/usb/device/hid/hhkb/bm/kds/../../../../../../../../../lib/ksdk_platform_lib/kds/K64F12/debug/libksdk_platform.a(fsl_uart_hal.o)
 .text          0x00000000        0x0 /opt/Freescale/KSDK_1.2.0/examples/frdmk64f/demo_apps/usb/device/hid/hhkb/bm/kds/../../../../../../../../../lib/ksdk_platform_lib/kds/K64F12/debug/libksdk_platform.a(fsl_sim_hal_MK64F12.o)
 .data          0x00000000        0x0 /opt/Freescale/KSDK_1.2.0/examples/frdmk64f/demo_apps/usb/device/hid/hhkb/bm/kds/../../../../../../../../../lib/ksdk_platform_lib/kds/K64F12/debug/libksdk_platform.a(fsl_sim_hal_MK64F12.o)
 .bss           0x00000000        0x0 /opt/Freescale/KSDK_1.2.0/examples/frdmk64f/demo_apps/usb/device/hid/hhkb/bm/kds/../../../../../../../../../lib/ksdk_platform_lib/kds/K64F12/debug/libksdk_platform.a(fsl_sim_hal_MK64F12.o)
 .text.CLOCK_HAL_GetUsbfsDiv
                0x00000000       0x1c /opt/Freescale/KSDK_1.2.0/examples/frdmk64f/demo_apps/usb/device/hid/hhkb/bm/kds/../../../../../../../../../lib/ksdk_platform_lib/kds/K64F12/debug/libksdk_platform.a(fsl_sim_hal_MK64F12.o)
 .text.CLOCK_HAL_GetOutDiv
                0x00000000       0x28 /opt/Freescale/KSDK_1.2.0/examples/frdmk64f/demo_apps/usb/device/hid/hhkb/bm/kds/../../../../../../../../../lib/ksdk_platform_lib/kds/K64F12/debug/libksdk_platform.a(fsl_sim_hal_MK64F12.o)
 .text.SIM_HAL_SetAdcAlternativeTriggerCmd
                0x00000000       0x38 /opt/Freescale/KSDK_1.2.0/examples/frdmk64f/demo_apps/usb/device/hid/hhkb/bm/kds/../../../../../../../../../lib/ksdk_platform_lib/kds/K64F12/debug/libksdk_platform.a(fsl_sim_hal_MK64F12.o)
 .text.SIM_HAL_GetAdcAlternativeTriggerCmd
                0x00000000       0x3c /opt/Freescale/KSDK_1.2.0/examples/frdmk64f/demo_apps/usb/device/hid/hhkb/bm/kds/../../../../../../../../../lib/ksdk_platform_lib/kds/K64F12/debug/libksdk_platform.a(fsl_sim_hal_MK64F12.o)
 .text.SIM_HAL_SetAdcPreTriggerMode
                0x00000000       0x38 /opt/Freescale/KSDK_1.2.0/examples/frdmk64f/demo_apps/usb/device/hid/hhkb/bm/kds/../../../../../../../../../lib/ksdk_platform_lib/kds/K64F12/debug/libksdk_platform.a(fsl_sim_hal_MK64F12.o)
 .text.SIM_HAL_GetAdcPreTriggerMode
                0x00000000       0x38 /opt/Freescale/KSDK_1.2.0/examples/frdmk64f/demo_apps/usb/device/hid/hhkb/bm/kds/../../../../../../../../../lib/ksdk_platform_lib/kds/K64F12/debug/libksdk_platform.a(fsl_sim_hal_MK64F12.o)
 .text.SIM_HAL_SetAdcTriggerMode
                0x00000000       0x40 /opt/Freescale/KSDK_1.2.0/examples/frdmk64f/demo_apps/usb/device/hid/hhkb/bm/kds/../../../../../../../../../lib/ksdk_platform_lib/kds/K64F12/debug/libksdk_platform.a(fsl_sim_hal_MK64F12.o)
 .text.SIM_HAL_GetAdcTriggerMode
                0x00000000       0x34 /opt/Freescale/KSDK_1.2.0/examples/frdmk64f/demo_apps/usb/device/hid/hhkb/bm/kds/../../../../../../../../../lib/ksdk_platform_lib/kds/K64F12/debug/libksdk_platform.a(fsl_sim_hal_MK64F12.o)
 .text.SIM_HAL_SetAdcTriggerModeOneStep
                0x00000000       0x74 /opt/Freescale/KSDK_1.2.0/examples/frdmk64f/demo_apps/usb/device/hid/hhkb/bm/kds/../../../../../../../../../lib/ksdk_platform_lib/kds/K64F12/debug/libksdk_platform.a(fsl_sim_hal_MK64F12.o)
 .text.SIM_HAL_SetUartRxSrcMode
                0x00000000       0x50 /opt/Freescale/KSDK_1.2.0/examples/frdmk64f/demo_apps/usb/device/hid/hhkb/bm/kds/../../../../../../../../../lib/ksdk_platform_lib/kds/K64F12/debug/libksdk_platform.a(fsl_sim_hal_MK64F12.o)
 .text.SIM_HAL_GetUartRxSrcMode
                0x00000000       0x44 /opt/Freescale/KSDK_1.2.0/examples/frdmk64f/demo_apps/usb/device/hid/hhkb/bm/kds/../../../../../../../../../lib/ksdk_platform_lib/kds/K64F12/debug/libksdk_platform.a(fsl_sim_hal_MK64F12.o)
 .text.SIM_HAL_SetUartTxSrcMode
                0x00000000       0x50 /opt/Freescale/KSDK_1.2.0/examples/frdmk64f/demo_apps/usb/device/hid/hhkb/bm/kds/../../../../../../../../../lib/ksdk_platform_lib/kds/K64F12/debug/libksdk_platform.a(fsl_sim_hal_MK64F12.o)
 .text.SIM_HAL_GetUartTxSrcMode
                0x00000000       0x44 /opt/Freescale/KSDK_1.2.0/examples/frdmk64f/demo_apps/usb/device/hid/hhkb/bm/kds/../../../../../../../../../lib/ksdk_platform_lib/kds/K64F12/debug/libksdk_platform.a(fsl_sim_hal_MK64F12.o)
 .text.SIM_HAL_SetFtmTriggerSrcMode
                0x00000000       0x68 /opt/Freescale/KSDK_1.2.0/examples/frdmk64f/demo_apps/usb/device/hid/hhkb/bm/kds/../../../../../../../../../lib/ksdk_platform_lib/kds/K64F12/debug/libksdk_platform.a(fsl_sim_hal_MK64F12.o)
 .text.SIM_HAL_GetFtmTriggerSrcMode
                0x00000000       0x6c /opt/Freescale/KSDK_1.2.0/examples/frdmk64f/demo_apps/usb/device/hid/hhkb/bm/kds/../../../../../../../../../lib/ksdk_platform_lib/kds/K64F12/debug/libksdk_platform.a(fsl_sim_hal_MK64F12.o)
 .text.SIM_HAL_SetFtmExternalClkPinMode
                0x00000000       0x50 /opt/Freescale/KSDK_1.2.0/examples/frdmk64f/demo_apps/usb/device/hid/hhkb/bm/kds/../../../../../../../../../lib/ksdk_platform_lib/kds/K64F12/debug/libksdk_platform.a(fsl_sim_hal_MK64F12.o)
 .text.SIM_HAL_GetFtmExternalClkPinMode
                0x00000000       0x54 /opt/Freescale/KSDK_1.2.0/examples/frdmk64f/demo_apps/usb/device/hid/hhkb/bm/kds/../../../../../../../../../lib/ksdk_platform_lib/kds/K64F12/debug/libksdk_platform.a(fsl_sim_hal_MK64F12.o)
 .text.SIM_HAL_SetFtmChSrcMode
                0x00000000       0x58 /opt/Freescale/KSDK_1.2.0/examples/frdmk64f/demo_apps/usb/device/hid/hhkb/bm/kds/../../../../../../../../../lib/ksdk_platform_lib/kds/K64F12/debug/libksdk_platform.a(fsl_sim_hal_MK64F12.o)
 .text.SIM_HAL_GetFtmChSrcMode
                0x00000000       0x4c /opt/Freescale/KSDK_1.2.0/examples/frdmk64f/demo_apps/usb/device/hid/hhkb/bm/kds/../../../../../../../../../lib/ksdk_platform_lib/kds/K64F12/debug/libksdk_platform.a(fsl_sim_hal_MK64F12.o)
 .text.SIM_HAL_SetFtmFaultSelMode
                0x00000000       0x78 /opt/Freescale/KSDK_1.2.0/examples/frdmk64f/demo_apps/usb/device/hid/hhkb/bm/kds/../../../../../../../../../lib/ksdk_platform_lib/kds/K64F12/debug/libksdk_platform.a(fsl_sim_hal_MK64F12.o)
 .text.SIM_HAL_GetFtmFaultSelMode
                0x00000000       0x7c /opt/Freescale/KSDK_1.2.0/examples/frdmk64f/demo_apps/usb/device/hid/hhkb/bm/kds/../../../../../../../../../lib/ksdk_platform_lib/kds/K64F12/debug/libksdk_platform.a(fsl_sim_hal_MK64F12.o)
 .rodata.__func__.6794
                0x00000000       0x1b /opt/Freescale/KSDK_1.2.0/examples/frdmk64f/demo_apps/usb/device/hid/hhkb/bm/kds/../../../../../../../../../lib/ksdk_platform_lib/kds/K64F12/debug/libksdk_platform.a(fsl_sim_hal_MK64F12.o)
 .rodata.__func__.6601
                0x00000000       0x1d /opt/Freescale/KSDK_1.2.0/examples/frdmk64f/demo_apps/usb/device/hid/hhkb/bm/kds/../../../../../../../../../lib/ksdk_platform_lib/kds/K64F12/debug/libksdk_platform.a(fsl_sim_hal_MK64F12.o)
 .rodata.__func__.6687
                0x00000000       0x19 /opt/Freescale/KSDK_1.2.0/examples/frdmk64f/demo_apps/usb/device/hid/hhkb/bm/kds/../../../../../../../../../lib/ksdk_platform_lib/kds/K64F12/debug/libksdk_platform.a(fsl_sim_hal_MK64F12.o)
 .rodata.__func__.6667
                0x00000000       0x19 /opt/Freescale/KSDK_1.2.0/examples/frdmk64f/demo_apps/usb/device/hid/hhkb/bm/kds/../../../../../../../../../lib/ksdk_platform_lib/kds/K64F12/debug/libksdk_platform.a(fsl_sim_hal_MK64F12.o)
 .rodata.__func__.6777
                0x00000000       0x18 /opt/Freescale/KSDK_1.2.0/examples/frdmk64f/demo_apps/usb/device/hid/hhkb/bm/kds/../../../../../../../../../lib/ksdk_platform_lib/kds/K64F12/debug/libksdk_platform.a(fsl_sim_hal_MK64F12.o)
 .rodata.__func__.6611
                0x00000000       0x1d /opt/Freescale/KSDK_1.2.0/examples/frdmk64f/demo_apps/usb/device/hid/hhkb/bm/kds/../../../../../../../../../lib/ksdk_platform_lib/kds/K64F12/debug/libksdk_platform.a(fsl_sim_hal_MK64F12.o)
 .rodata.__func__.6631
                0x00000000       0x1a /opt/Freescale/KSDK_1.2.0/examples/frdmk64f/demo_apps/usb/device/hid/hhkb/bm/kds/../../../../../../../../../lib/ksdk_platform_lib/kds/K64F12/debug/libksdk_platform.a(fsl_sim_hal_MK64F12.o)
 .rodata.str1.1
                0x00000000       0xe3 /opt/Freescale/KSDK_1.2.0/examples/frdmk64f/demo_apps/usb/device/hid/hhkb/bm/kds/../../../../../../../../../lib/ksdk_platform_lib/kds/K64F12/debug/libksdk_platform.a(fsl_sim_hal_MK64F12.o)
 .rodata.__func__.6717
                0x00000000       0x1d /opt/Freescale/KSDK_1.2.0/examples/frdmk64f/demo_apps/usb/device/hid/hhkb/bm/kds/../../../../../../../../../lib/ksdk_platform_lib/kds/K64F12/debug/libksdk_platform.a(fsl_sim_hal_MK64F12.o)
 .rodata.__func__.6735
                0x00000000       0x21 /opt/Freescale/KSDK_1.2.0/examples/frdmk64f/demo_apps/usb/device/hid/hhkb/bm/kds/../../../../../../../../../lib/ksdk_platform_lib/kds/K64F12/debug/libksdk_platform.a(fsl_sim_hal_MK64F12.o)
 .rodata.__func__.6812
                0x00000000       0x1b /opt/Freescale/KSDK_1.2.0/examples/frdmk64f/demo_apps/usb/device/hid/hhkb/bm/kds/../../../../../../../../../lib/ksdk_platform_lib/kds/K64F12/debug/libksdk_platform.a(fsl_sim_hal_MK64F12.o)
 .rodata.__func__.6581
                0x00000000       0x24 /opt/Freescale/KSDK_1.2.0/examples/frdmk64f/demo_apps/usb/device/hid/hhkb/bm/kds/../../../../../../../../../lib/ksdk_platform_lib/kds/K64F12/debug/libksdk_platform.a(fsl_sim_hal_MK64F12.o)
 .rodata.__func__.6677
                0x00000000       0x19 /opt/Freescale/KSDK_1.2.0/examples/frdmk64f/demo_apps/usb/device/hid/hhkb/bm/kds/../../../../../../../../../lib/ksdk_platform_lib/kds/K64F12/debug/libksdk_platform.a(fsl_sim_hal_MK64F12.o)
 .rodata.__func__.6657
                0x00000000       0x19 /opt/Freescale/KSDK_1.2.0/examples/frdmk64f/demo_apps/usb/device/hid/hhkb/bm/kds/../../../../../../../../../lib/ksdk_platform_lib/kds/K64F12/debug/libksdk_platform.a(fsl_sim_hal_MK64F12.o)
 .rodata.__func__.6591
                0x00000000       0x24 /opt/Freescale/KSDK_1.2.0/examples/frdmk64f/demo_apps/usb/device/hid/hhkb/bm/kds/../../../../../../../../../lib/ksdk_platform_lib/kds/K64F12/debug/libksdk_platform.a(fsl_sim_hal_MK64F12.o)
 .rodata.__func__.6698
                0x00000000       0x1d /opt/Freescale/KSDK_1.2.0/examples/frdmk64f/demo_apps/usb/device/hid/hhkb/bm/kds/../../../../../../../../../lib/ksdk_platform_lib/kds/K64F12/debug/libksdk_platform.a(fsl_sim_hal_MK64F12.o)
 .rodata.__func__.6643
                0x00000000       0x21 /opt/Freescale/KSDK_1.2.0/examples/frdmk64f/demo_apps/usb/device/hid/hhkb/bm/kds/../../../../../../../../../lib/ksdk_platform_lib/kds/K64F12/debug/libksdk_platform.a(fsl_sim_hal_MK64F12.o)
 .rodata.__func__.6760
                0x00000000       0x18 /opt/Freescale/KSDK_1.2.0/examples/frdmk64f/demo_apps/usb/device/hid/hhkb/bm/kds/../../../../../../../../../lib/ksdk_platform_lib/kds/K64F12/debug/libksdk_platform.a(fsl_sim_hal_MK64F12.o)
 .rodata.__func__.6747
                0x00000000       0x21 /opt/Freescale/KSDK_1.2.0/examples/frdmk64f/demo_apps/usb/device/hid/hhkb/bm/kds/../../../../../../../../../lib/ksdk_platform_lib/kds/K64F12/debug/libksdk_platform.a(fsl_sim_hal_MK64F12.o)
 .rodata.__func__.6621
                0x00000000       0x1a /opt/Freescale/KSDK_1.2.0/examples/frdmk64f/demo_apps/usb/device/hid/hhkb/bm/kds/../../../../../../../../../lib/ksdk_platform_lib/kds/K64F12/debug/libksdk_platform.a(fsl_sim_hal_MK64F12.o)
 .text          0x00000000        0x0 /opt/Freescale/KSDK_1.2.0/examples/frdmk64f/demo_apps/usb/device/hid/hhkb/bm/kds/../../../../../../../../../lib/ksdk_platform_lib/kds/K64F12/debug/libksdk_platform.a(fsl_lptmr_driver.o)
 .data          0x00000000        0x0 /opt/Freescale/KSDK_1.2.0/examples/frdmk64f/demo_apps/usb/device/hid/hhkb/bm/kds/../../../../../../../../../lib/ksdk_platform_lib/kds/K64F12/debug/libksdk_platform.a(fsl_lptmr_driver.o)
 .bss           0x00000000        0x0 /opt/Freescale/KSDK_1.2.0/examples/frdmk64f/demo_apps/usb/device/hid/hhkb/bm/kds/../../../../../../../../../lib/ksdk_platform_lib/kds/K64F12/debug/libksdk_platform.a(fsl_lptmr_driver.o)
 .text.LPTMR_DRV_Deinit
                0x00000000       0x68 /opt/Freescale/KSDK_1.2.0/examples/frdmk64f/demo_apps/usb/device/hid/hhkb/bm/kds/../../../../../../../../../lib/ksdk_platform_lib/kds/K64F12/debug/libksdk_platform.a(fsl_lptmr_driver.o)
 .text.LPTMR_DRV_Stop
                0x00000000       0x48 /opt/Freescale/KSDK_1.2.0/examples/frdmk64f/demo_apps/usb/device/hid/hhkb/bm/kds/../../../../../../../../../lib/ksdk_platform_lib/kds/K64F12/debug/libksdk_platform.a(fsl_lptmr_driver.o)
 .text.LPTMR_DRV_GetCurrentTimeUs
                0x00000000       0x7c /opt/Freescale/KSDK_1.2.0/examples/frdmk64f/demo_apps/usb/device/hid/hhkb/bm/kds/../../../../../../../../../lib/ksdk_platform_lib/kds/K64F12/debug/libksdk_platform.a(fsl_lptmr_driver.o)
 .text.LPTMR_DRV_SetPulsePeriodCount
                0x00000000       0x60 /opt/Freescale/KSDK_1.2.0/examples/frdmk64f/demo_apps/usb/device/hid/hhkb/bm/kds/../../../../../../../../../lib/ksdk_platform_lib/kds/K64F12/debug/libksdk_platform.a(fsl_lptmr_driver.o)
 .text.LPTMR_DRV_GetCurrentPulseCount
                0x00000000       0x48 /opt/Freescale/KSDK_1.2.0/examples/frdmk64f/demo_apps/usb/device/hid/hhkb/bm/kds/../../../../../../../../../lib/ksdk_platform_lib/kds/K64F12/debug/libksdk_platform.a(fsl_lptmr_driver.o)
 .rodata.__func__.7985
                0x00000000       0x1e /opt/Freescale/KSDK_1.2.0/examples/frdmk64f/demo_apps/usb/device/hid/hhkb/bm/kds/../../../../../../../../../lib/ksdk_platform_lib/kds/K64F12/debug/libksdk_platform.a(fsl_lptmr_driver.o)
 .rodata.__func__.7990
                0x00000000       0x1f /opt/Freescale/KSDK_1.2.0/examples/frdmk64f/demo_apps/usb/device/hid/hhkb/bm/kds/../../../../../../../../../lib/ksdk_platform_lib/kds/K64F12/debug/libksdk_platform.a(fsl_lptmr_driver.o)
 .rodata.__func__.7956
                0x00000000       0x11 /opt/Freescale/KSDK_1.2.0/examples/frdmk64f/demo_apps/usb/device/hid/hhkb/bm/kds/../../../../../../../../../lib/ksdk_platform_lib/kds/K64F12/debug/libksdk_platform.a(fsl_lptmr_driver.o)
 .rodata.__func__.7966
                0x00000000        0xf /opt/Freescale/KSDK_1.2.0/examples/frdmk64f/demo_apps/usb/device/hid/hhkb/bm/kds/../../../../../../../../../lib/ksdk_platform_lib/kds/K64F12/debug/libksdk_platform.a(fsl_lptmr_driver.o)
 .rodata.__func__.7978
                0x00000000       0x1b /opt/Freescale/KSDK_1.2.0/examples/frdmk64f/demo_apps/usb/device/hid/hhkb/bm/kds/../../../../../../../../../lib/ksdk_platform_lib/kds/K64F12/debug/libksdk_platform.a(fsl_lptmr_driver.o)
 .text          0x00000000        0x0 /opt/Freescale/KSDK_1.2.0/examples/frdmk64f/demo_apps/usb/device/hid/hhkb/bm/kds/../../../../../../../../../lib/ksdk_platform_lib/kds/K64F12/debug/libksdk_platform.a(fsl_gpio_driver.o)
 .data          0x00000000        0x0 /opt/Freescale/KSDK_1.2.0/examples/frdmk64f/demo_apps/usb/device/hid/hhkb/bm/kds/../../../../../../../../../lib/ksdk_platform_lib/kds/K64F12/debug/libksdk_platform.a(fsl_gpio_driver.o)
 .bss           0x00000000        0x0 /opt/Freescale/KSDK_1.2.0/examples/frdmk64f/demo_apps/usb/device/hid/hhkb/bm/kds/../../../../../../../../../lib/ksdk_platform_lib/kds/K64F12/debug/libksdk_platform.a(fsl_gpio_driver.o)
 .text.unlikely.PORT_HAL_SetDigitalFilterCmd.part.1
                0x00000000       0x1c /opt/Freescale/KSDK_1.2.0/examples/frdmk64f/demo_apps/usb/device/hid/hhkb/bm/kds/../../../../../../../../../lib/ksdk_platform_lib/kds/K64F12/debug/libksdk_platform.a(fsl_gpio_driver.o)
 .text.GPIO_DRV_Init
                0x00000000       0x32 /opt/Freescale/KSDK_1.2.0/examples/frdmk64f/demo_apps/usb/device/hid/hhkb/bm/kds/../../../../../../../../../lib/ksdk_platform_lib/kds/K64F12/debug/libksdk_platform.a(fsl_gpio_driver.o)
 .text.GPIO_DRV_GetPinDir
                0x00000000       0x3c /opt/Freescale/KSDK_1.2.0/examples/frdmk64f/demo_apps/usb/device/hid/hhkb/bm/kds/../../../../../../../../../lib/ksdk_platform_lib/kds/K64F12/debug/libksdk_platform.a(fsl_gpio_driver.o)
 .text.GPIO_DRV_SetPinDir
                0x00000000       0x18 /opt/Freescale/KSDK_1.2.0/examples/frdmk64f/demo_apps/usb/device/hid/hhkb/bm/kds/../../../../../../../../../lib/ksdk_platform_lib/kds/K64F12/debug/libksdk_platform.a(fsl_gpio_driver.o)
 .text.GPIO_DRV_SetDigitalFilterCmd
                0x00000000       0x2c /opt/Freescale/KSDK_1.2.0/examples/frdmk64f/demo_apps/usb/device/hid/hhkb/bm/kds/../../../../../../../../../lib/ksdk_platform_lib/kds/K64F12/debug/libksdk_platform.a(fsl_gpio_driver.o)
 .text.GPIO_DRV_IsPinIntPending
                0x00000000       0x48 /opt/Freescale/KSDK_1.2.0/examples/frdmk64f/demo_apps/usb/device/hid/hhkb/bm/kds/../../../../../../../../../lib/ksdk_platform_lib/kds/K64F12/debug/libksdk_platform.a(fsl_gpio_driver.o)
 .text.GPIO_DRV_ClearPinIntFlag
                0x00000000       0x44 /opt/Freescale/KSDK_1.2.0/examples/frdmk64f/demo_apps/usb/device/hid/hhkb/bm/kds/../../../../../../../../../lib/ksdk_platform_lib/kds/K64F12/debug/libksdk_platform.a(fsl_gpio_driver.o)
 .rodata.__func__.6149
                0x00000000       0x19 /opt/Freescale/KSDK_1.2.0/examples/frdmk64f/demo_apps/usb/device/hid/hhkb/bm/kds/../../../../../../../../../lib/ksdk_platform_lib/kds/K64F12/debug/libksdk_platform.a(fsl_gpio_driver.o)
 .rodata.__func__.6154
                0x00000000       0x19 /opt/Freescale/KSDK_1.2.0/examples/frdmk64f/demo_apps/usb/device/hid/hhkb/bm/kds/../../../../../../../../../lib/ksdk_platform_lib/kds/K64F12/debug/libksdk_platform.a(fsl_gpio_driver.o)
 .rodata.__func__.6186
                0x00000000       0x13 /opt/Freescale/KSDK_1.2.0/examples/frdmk64f/demo_apps/usb/device/hid/hhkb/bm/kds/../../../../../../../../../lib/ksdk_platform_lib/kds/K64F12/debug/libksdk_platform.a(fsl_gpio_driver.o)
 .rodata.__func__.6117
                0x00000000       0x1d /opt/Freescale/KSDK_1.2.0/examples/frdmk64f/demo_apps/usb/device/hid/hhkb/bm/kds/../../../../../../../../../lib/ksdk_platform_lib/kds/K64F12/debug/libksdk_platform.a(fsl_gpio_driver.o)
 .text          0x00000000        0x0 /opt/Freescale/KSDK_1.2.0/examples/frdmk64f/demo_apps/usb/device/hid/hhkb/bm/kds/../../../../../../../../../lib/ksdk_platform_lib/kds/K64F12/debug/libksdk_platform.a(fsl_clock_MK64F12.o)
 .data          0x00000000        0x0 /opt/Freescale/KSDK_1.2.0/examples/frdmk64f/demo_apps/usb/device/hid/hhkb/bm/kds/../../../../../../../../../lib/ksdk_platform_lib/kds/K64F12/debug/libksdk_platform.a(fsl_clock_MK64F12.o)
 .bss           0x00000000        0x0 /opt/Freescale/KSDK_1.2.0/examples/frdmk64f/demo_apps/usb/device/hid/hhkb/bm/kds/../../../../../../../../../lib/ksdk_platform_lib/kds/K64F12/debug/libksdk_platform.a(fsl_clock_MK64F12.o)
 .text.SIM_HAL_GetGateCmd.constprop.10
                0x00000000       0x14 /opt/Freescale/KSDK_1.2.0/examples/frdmk64f/demo_apps/usb/device/hid/hhkb/bm/kds/../../../../../../../../../lib/ksdk_platform_lib/kds/K64F12/debug/libksdk_platform.a(fsl_clock_MK64F12.o)
 .text.SIM_HAL_DisableClock.constprop.11
                0x00000000       0x10 /opt/Freescale/KSDK_1.2.0/examples/frdmk64f/demo_apps/usb/device/hid/hhkb/bm/kds/../../../../../../../../../lib/ksdk_platform_lib/kds/K64F12/debug/libksdk_platform.a(fsl_clock_MK64F12.o)
 .text.CLOCK_SYS_GetFlexbusFreq
                0x00000000       0x24 /opt/Freescale/KSDK_1.2.0/examples/frdmk64f/demo_apps/usb/device/hid/hhkb/bm/kds/../../../../../../../../../lib/ksdk_platform_lib/kds/K64F12/debug/libksdk_platform.a(fsl_clock_MK64F12.o)
 .text.CLOCK_SYS_GetFlashClockFreq
                0x00000000       0x24 /opt/Freescale/KSDK_1.2.0/examples/frdmk64f/demo_apps/usb/device/hid/hhkb/bm/kds/../../../../../../../../../lib/ksdk_platform_lib/kds/K64F12/debug/libksdk_platform.a(fsl_clock_MK64F12.o)
 .text.CLOCK_SYS_GetPllFllClockFreq
                0x00000000       0x34 /opt/Freescale/KSDK_1.2.0/examples/frdmk64f/demo_apps/usb/device/hid/hhkb/bm/kds/../../../../../../../../../lib/ksdk_platform_lib/kds/K64F12/debug/libksdk_platform.a(fsl_clock_MK64F12.o)
 .text.CLOCK_SYS_GetRtcOutFreq
                0x00000000       0x1c /opt/Freescale/KSDK_1.2.0/examples/frdmk64f/demo_apps/usb/device/hid/hhkb/bm/kds/../../../../../../../../../lib/ksdk_platform_lib/kds/K64F12/debug/libksdk_platform.a(fsl_clock_MK64F12.o)
 .text.CLOCK_SYS_GetFreq
                0x00000000       0x9c /opt/Freescale/KSDK_1.2.0/examples/frdmk64f/demo_apps/usb/device/hid/hhkb/bm/kds/../../../../../../../../../lib/ksdk_platform_lib/kds/K64F12/debug/libksdk_platform.a(fsl_clock_MK64F12.o)
 .text.CLOCK_SYS_GetWdogFreq
                0x00000000        0xc /opt/Freescale/KSDK_1.2.0/examples/frdmk64f/demo_apps/usb/device/hid/hhkb/bm/kds/../../../../../../../../../lib/ksdk_platform_lib/kds/K64F12/debug/libksdk_platform.a(fsl_clock_MK64F12.o)
 .text.CLOCK_SYS_GetTraceFreq
                0x00000000       0x24 /opt/Freescale/KSDK_1.2.0/examples/frdmk64f/demo_apps/usb/device/hid/hhkb/bm/kds/../../../../../../../../../lib/ksdk_platform_lib/kds/K64F12/debug/libksdk_platform.a(fsl_clock_MK64F12.o)
 .text.CLOCK_SYS_GetPortFilterFreq
                0x00000000        0xc /opt/Freescale/KSDK_1.2.0/examples/frdmk64f/demo_apps/usb/device/hid/hhkb/bm/kds/../../../../../../../../../lib/ksdk_platform_lib/kds/K64F12/debug/libksdk_platform.a(fsl_clock_MK64F12.o)
 .text.CLOCK_SYS_GetEnetRmiiFreq
                0x00000000       0x1c /opt/Freescale/KSDK_1.2.0/examples/frdmk64f/demo_apps/usb/device/hid/hhkb/bm/kds/../../../../../../../../../lib/ksdk_platform_lib/kds/K64F12/debug/libksdk_platform.a(fsl_clock_MK64F12.o)
 .text.CLOCK_SYS_GetEnetTimeStampFreq
                0x00000000       0x34 /opt/Freescale/KSDK_1.2.0/examples/frdmk64f/demo_apps/usb/device/hid/hhkb/bm/kds/../../../../../../../../../lib/ksdk_platform_lib/kds/K64F12/debug/libksdk_platform.a(fsl_clock_MK64F12.o)
 .text.CLOCK_SYS_GetUsbfsFreq
                0x00000000       0x48 /opt/Freescale/KSDK_1.2.0/examples/frdmk64f/demo_apps/usb/device/hid/hhkb/bm/kds/../../../../../../../../../lib/ksdk_platform_lib/kds/K64F12/debug/libksdk_platform.a(fsl_clock_MK64F12.o)
 .text.CLOCK_SYS_GetFlexcanFreq
                0x00000000        0xa /opt/Freescale/KSDK_1.2.0/examples/frdmk64f/demo_apps/usb/device/hid/hhkb/bm/kds/../../../../../../../../../lib/ksdk_platform_lib/kds/K64F12/debug/libksdk_platform.a(fsl_clock_MK64F12.o)
 .text.CLOCK_SYS_GetSdhcFreq
                0x00000000       0x34 /opt/Freescale/KSDK_1.2.0/examples/frdmk64f/demo_apps/usb/device/hid/hhkb/bm/kds/../../../../../../../../../lib/ksdk_platform_lib/kds/K64F12/debug/libksdk_platform.a(fsl_clock_MK64F12.o)
 .text.CLOCK_SYS_GetSaiFreq
                0x00000000       0x20 /opt/Freescale/KSDK_1.2.0/examples/frdmk64f/demo_apps/usb/device/hid/hhkb/bm/kds/../../../../../../../../../lib/ksdk_platform_lib/kds/K64F12/debug/libksdk_platform.a(fsl_clock_MK64F12.o)
 .text.CLOCK_SYS_GetFtmExternalFreq
                0x00000000       0x20 /opt/Freescale/KSDK_1.2.0/examples/frdmk64f/demo_apps/usb/device/hid/hhkb/bm/kds/../../../../../../../../../lib/ksdk_platform_lib/kds/K64F12/debug/libksdk_platform.a(fsl_clock_MK64F12.o)
 .text.CLOCK_SYS_DisablePortClock
                0x00000000       0x30 /opt/Freescale/KSDK_1.2.0/examples/frdmk64f/demo_apps/usb/device/hid/hhkb/bm/kds/../../../../../../../../../lib/ksdk_platform_lib/kds/K64F12/debug/libksdk_platform.a(fsl_clock_MK64F12.o)
 .text.CLOCK_SYS_GetPortGateCmd
                0x00000000       0x30 /opt/Freescale/KSDK_1.2.0/examples/frdmk64f/demo_apps/usb/device/hid/hhkb/bm/kds/../../../../../../../../../lib/ksdk_platform_lib/kds/K64F12/debug/libksdk_platform.a(fsl_clock_MK64F12.o)
 .text.CLOCK_SYS_EnableAdcClock
                0x00000000       0x30 /opt/Freescale/KSDK_1.2.0/examples/frdmk64f/demo_apps/usb/device/hid/hhkb/bm/kds/../../../../../../../../../lib/ksdk_platform_lib/kds/K64F12/debug/libksdk_platform.a(fsl_clock_MK64F12.o)
 .text.CLOCK_SYS_DisableAdcClock
                0x00000000       0x30 /opt/Freescale/KSDK_1.2.0/examples/frdmk64f/demo_apps/usb/device/hid/hhkb/bm/kds/../../../../../../../../../lib/ksdk_platform_lib/kds/K64F12/debug/libksdk_platform.a(fsl_clock_MK64F12.o)
 .text.CLOCK_SYS_GetAdcGateCmd
                0x00000000       0x30 /opt/Freescale/KSDK_1.2.0/examples/frdmk64f/demo_apps/usb/device/hid/hhkb/bm/kds/../../../../../../../../../lib/ksdk_platform_lib/kds/K64F12/debug/libksdk_platform.a(fsl_clock_MK64F12.o)
 .text.CLOCK_SYS_EnableDacClock
                0x00000000       0x30 /opt/Freescale/KSDK_1.2.0/examples/frdmk64f/demo_apps/usb/device/hid/hhkb/bm/kds/../../../../../../../../../lib/ksdk_platform_lib/kds/K64F12/debug/libksdk_platform.a(fsl_clock_MK64F12.o)
 .text.CLOCK_SYS_DisableDacClock
                0x00000000       0x30 /opt/Freescale/KSDK_1.2.0/examples/frdmk64f/demo_apps/usb/device/hid/hhkb/bm/kds/../../../../../../../../../lib/ksdk_platform_lib/kds/K64F12/debug/libksdk_platform.a(fsl_clock_MK64F12.o)
 .text.CLOCK_SYS_GetDacGateCmd
                0x00000000       0x30 /opt/Freescale/KSDK_1.2.0/examples/frdmk64f/demo_apps/usb/device/hid/hhkb/bm/kds/../../../../../../../../../lib/ksdk_platform_lib/kds/K64F12/debug/libksdk_platform.a(fsl_clock_MK64F12.o)
 .text.CLOCK_SYS_EnableFtmClock
                0x00000000       0x30 /opt/Freescale/KSDK_1.2.0/examples/frdmk64f/demo_apps/usb/device/hid/hhkb/bm/kds/../../../../../../../../../lib/ksdk_platform_lib/kds/K64F12/debug/libksdk_platform.a(fsl_clock_MK64F12.o)
 .text.CLOCK_SYS_DisableFtmClock
                0x00000000       0x30 /opt/Freescale/KSDK_1.2.0/examples/frdmk64f/demo_apps/usb/device/hid/hhkb/bm/kds/../../../../../../../../../lib/ksdk_platform_lib/kds/K64F12/debug/libksdk_platform.a(fsl_clock_MK64F12.o)
 .text.CLOCK_SYS_GetFtmGateCmd
                0x00000000       0x30 /opt/Freescale/KSDK_1.2.0/examples/frdmk64f/demo_apps/usb/device/hid/hhkb/bm/kds/../../../../../../../../../lib/ksdk_platform_lib/kds/K64F12/debug/libksdk_platform.a(fsl_clock_MK64F12.o)
 .text.CLOCK_SYS_EnableSpiClock
                0x00000000       0x30 /opt/Freescale/KSDK_1.2.0/examples/frdmk64f/demo_apps/usb/device/hid/hhkb/bm/kds/../../../../../../../../../lib/ksdk_platform_lib/kds/K64F12/debug/libksdk_platform.a(fsl_clock_MK64F12.o)
 .text.CLOCK_SYS_DisableSpiClock
                0x00000000       0x30 /opt/Freescale/KSDK_1.2.0/examples/frdmk64f/demo_apps/usb/device/hid/hhkb/bm/kds/../../../../../../../../../lib/ksdk_platform_lib/kds/K64F12/debug/libksdk_platform.a(fsl_clock_MK64F12.o)
 .text.CLOCK_SYS_GetSpiGateCmd
                0x00000000       0x30 /opt/Freescale/KSDK_1.2.0/examples/frdmk64f/demo_apps/usb/device/hid/hhkb/bm/kds/../../../../../../../../../lib/ksdk_platform_lib/kds/K64F12/debug/libksdk_platform.a(fsl_clock_MK64F12.o)
 .text.CLOCK_SYS_EnableI2cClock
                0x00000000       0x30 /opt/Freescale/KSDK_1.2.0/examples/frdmk64f/demo_apps/usb/device/hid/hhkb/bm/kds/../../../../../../../../../lib/ksdk_platform_lib/kds/K64F12/debug/libksdk_platform.a(fsl_clock_MK64F12.o)
 .text.CLOCK_SYS_DisableI2cClock
                0x00000000       0x30 /opt/Freescale/KSDK_1.2.0/examples/frdmk64f/demo_apps/usb/device/hid/hhkb/bm/kds/../../../../../../../../../lib/ksdk_platform_lib/kds/K64F12/debug/libksdk_platform.a(fsl_clock_MK64F12.o)
 .text.CLOCK_SYS_GetI2cGateCmd
                0x00000000       0x30 /opt/Freescale/KSDK_1.2.0/examples/frdmk64f/demo_apps/usb/device/hid/hhkb/bm/kds/../../../../../../../../../lib/ksdk_platform_lib/kds/K64F12/debug/libksdk_platform.a(fsl_clock_MK64F12.o)
 .text.CLOCK_SYS_DisableUartClock
                0x00000000       0x30 /opt/Freescale/KSDK_1.2.0/examples/frdmk64f/demo_apps/usb/device/hid/hhkb/bm/kds/../../../../../../../../../lib/ksdk_platform_lib/kds/K64F12/debug/libksdk_platform.a(fsl_clock_MK64F12.o)
 .text.CLOCK_SYS_GetUartGateCmd
                0x00000000       0x30 /opt/Freescale/KSDK_1.2.0/examples/frdmk64f/demo_apps/usb/device/hid/hhkb/bm/kds/../../../../../../../../../lib/ksdk_platform_lib/kds/K64F12/debug/libksdk_platform.a(fsl_clock_MK64F12.o)
 .bss.g_enet1588ClkInFreq
                0x00000000        0x4 /opt/Freescale/KSDK_1.2.0/examples/frdmk64f/demo_apps/usb/device/hid/hhkb/bm/kds/../../../../../../../../../lib/ksdk_platform_lib/kds/K64F12/debug/libksdk_platform.a(fsl_clock_MK64F12.o)
 .rodata.__func__.7780
                0x00000000       0x19 /opt/Freescale/KSDK_1.2.0/examples/frdmk64f/demo_apps/usb/device/hid/hhkb/bm/kds/../../../../../../../../../lib/ksdk_platform_lib/kds/K64F12/debug/libksdk_platform.a(fsl_clock_MK64F12.o)
 .rodata.__func__.7810
                0x00000000       0x1a /opt/Freescale/KSDK_1.2.0/examples/frdmk64f/demo_apps/usb/device/hid/hhkb/bm/kds/../../../../../../../../../lib/ksdk_platform_lib/kds/K64F12/debug/libksdk_platform.a(fsl_clock_MK64F12.o)
 .rodata.__func__.7819
                0x00000000       0x19 /opt/Freescale/KSDK_1.2.0/examples/frdmk64f/demo_apps/usb/device/hid/hhkb/bm/kds/../../../../../../../../../lib/ksdk_platform_lib/kds/K64F12/debug/libksdk_platform.a(fsl_clock_MK64F12.o)
 .bss.g_sdhcClkInFreq
                0x00000000        0x4 /opt/Freescale/KSDK_1.2.0/examples/frdmk64f/demo_apps/usb/device/hid/hhkb/bm/kds/../../../../../../../../../lib/ksdk_platform_lib/kds/K64F12/debug/libksdk_platform.a(fsl_clock_MK64F12.o)
 .rodata.__func__.7784
                0x00000000       0x1a /opt/Freescale/KSDK_1.2.0/examples/frdmk64f/demo_apps/usb/device/hid/hhkb/bm/kds/../../../../../../../../../lib/ksdk_platform_lib/kds/K64F12/debug/libksdk_platform.a(fsl_clock_MK64F12.o)
 .rodata.spiGateTable
                0x00000000        0x3 /opt/Freescale/KSDK_1.2.0/examples/frdmk64f/demo_apps/usb/device/hid/hhkb/bm/kds/../../../../../../../../../lib/ksdk_platform_lib/kds/K64F12/debug/libksdk_platform.a(fsl_clock_MK64F12.o)
 .rodata.i2cGateTable
                0x00000000        0x3 /opt/Freescale/KSDK_1.2.0/examples/frdmk64f/demo_apps/usb/device/hid/hhkb/bm/kds/../../../../../../../../../lib/ksdk_platform_lib/kds/K64F12/debug/libksdk_platform.a(fsl_clock_MK64F12.o)
 .bss.g_usbClkInFreq
                0x00000000        0x4 /opt/Freescale/KSDK_1.2.0/examples/frdmk64f/demo_apps/usb/device/hid/hhkb/bm/kds/../../../../../../../../../lib/ksdk_platform_lib/kds/K64F12/debug/libksdk_platform.a(fsl_clock_MK64F12.o)
 .rodata.__func__.7793
                0x00000000       0x19 /opt/Freescale/KSDK_1.2.0/examples/frdmk64f/demo_apps/usb/device/hid/hhkb/bm/kds/../../../../../../../../../lib/ksdk_platform_lib/kds/K64F12/debug/libksdk_platform.a(fsl_clock_MK64F12.o)
 .rodata.__func__.7801
                0x00000000       0x18 /opt/Freescale/KSDK_1.2.0/examples/frdmk64f/demo_apps/usb/device/hid/hhkb/bm/kds/../../../../../../../../../lib/ksdk_platform_lib/kds/K64F12/debug/libksdk_platform.a(fsl_clock_MK64F12.o)
 .rodata.__func__.7758
                0x00000000       0x1b /opt/Freescale/KSDK_1.2.0/examples/frdmk64f/demo_apps/usb/device/hid/hhkb/bm/kds/../../../../../../../../../lib/ksdk_platform_lib/kds/K64F12/debug/libksdk_platform.a(fsl_clock_MK64F12.o)
 .rodata.__func__.7806
                0x00000000       0x19 /opt/Freescale/KSDK_1.2.0/examples/frdmk64f/demo_apps/usb/device/hid/hhkb/bm/kds/../../../../../../../../../lib/ksdk_platform_lib/kds/K64F12/debug/libksdk_platform.a(fsl_clock_MK64F12.o)
 .rodata.__func__.7771
                0x00000000       0x1a /opt/Freescale/KSDK_1.2.0/examples/frdmk64f/demo_apps/usb/device/hid/hhkb/bm/kds/../../../../../../../../../lib/ksdk_platform_lib/kds/K64F12/debug/libksdk_platform.a(fsl_clock_MK64F12.o)
 .rodata.__func__.7814
                0x00000000       0x18 /opt/Freescale/KSDK_1.2.0/examples/frdmk64f/demo_apps/usb/device/hid/hhkb/bm/kds/../../../../../../../../../lib/ksdk_platform_lib/kds/K64F12/debug/libksdk_platform.a(fsl_clock_MK64F12.o)
 .rodata.__func__.7775
                0x00000000       0x18 /opt/Freescale/KSDK_1.2.0/examples/frdmk64f/demo_apps/usb/device/hid/hhkb/bm/kds/../../../../../../../../../lib/ksdk_platform_lib/kds/K64F12/debug/libksdk_platform.a(fsl_clock_MK64F12.o)
 .rodata.dacGateTable
                0x00000000        0x2 /opt/Freescale/KSDK_1.2.0/examples/frdmk64f/demo_apps/usb/device/hid/hhkb/bm/kds/../../../../../../../../../lib/ksdk_platform_lib/kds/K64F12/debug/libksdk_platform.a(fsl_clock_MK64F12.o)
 .rodata.ftmGateTable
                0x00000000        0x4 /opt/Freescale/KSDK_1.2.0/examples/frdmk64f/demo_apps/usb/device/hid/hhkb/bm/kds/../../../../../../../../../lib/ksdk_platform_lib/kds/K64F12/debug/libksdk_platform.a(fsl_clock_MK64F12.o)
 .rodata.__func__.7827
                0x00000000       0x18 /opt/Freescale/KSDK_1.2.0/examples/frdmk64f/demo_apps/usb/device/hid/hhkb/bm/kds/../../../../../../../../../lib/ksdk_platform_lib/kds/K64F12/debug/libksdk_platform.a(fsl_clock_MK64F12.o)
 .rodata.__func__.7788
                0x00000000       0x18 /opt/Freescale/KSDK_1.2.0/examples/frdmk64f/demo_apps/usb/device/hid/hhkb/bm/kds/../../../../../../../../../lib/ksdk_platform_lib/kds/K64F12/debug/libksdk_platform.a(fsl_clock_MK64F12.o)
 .rodata.adcGateTable
                0x00000000        0x2 /opt/Freescale/KSDK_1.2.0/examples/frdmk64f/demo_apps/usb/device/hid/hhkb/bm/kds/../../../../../../../../../lib/ksdk_platform_lib/kds/K64F12/debug/libksdk_platform.a(fsl_clock_MK64F12.o)
 .bss.g_ftmClkFreq
                0x00000000        0x8 /opt/Freescale/KSDK_1.2.0/examples/frdmk64f/demo_apps/usb/device/hid/hhkb/bm/kds/../../../../../../../../../lib/ksdk_platform_lib/kds/K64F12/debug/libksdk_platform.a(fsl_clock_MK64F12.o)
 .rodata.__func__.7836
                0x00000000       0x1b /opt/Freescale/KSDK_1.2.0/examples/frdmk64f/demo_apps/usb/device/hid/hhkb/bm/kds/../../../../../../../../../lib/ksdk_platform_lib/kds/K64F12/debug/libksdk_platform.a(fsl_clock_MK64F12.o)
 .rodata.__func__.7797
                0x00000000       0x1a /opt/Freescale/KSDK_1.2.0/examples/frdmk64f/demo_apps/usb/device/hid/hhkb/bm/kds/../../../../../../../../../lib/ksdk_platform_lib/kds/K64F12/debug/libksdk_platform.a(fsl_clock_MK64F12.o)
 .rodata.__func__.7767
                0x00000000       0x19 /opt/Freescale/KSDK_1.2.0/examples/frdmk64f/demo_apps/usb/device/hid/hhkb/bm/kds/../../../../../../../../../lib/ksdk_platform_lib/kds/K64F12/debug/libksdk_platform.a(fsl_clock_MK64F12.o)
 .rodata.__func__.7840
                0x00000000       0x19 /opt/Freescale/KSDK_1.2.0/examples/frdmk64f/demo_apps/usb/device/hid/hhkb/bm/kds/../../../../../../../../../lib/ksdk_platform_lib/kds/K64F12/debug/libksdk_platform.a(fsl_clock_MK64F12.o)
 .rodata.__func__.7762
                0x00000000       0x19 /opt/Freescale/KSDK_1.2.0/examples/frdmk64f/demo_apps/usb/device/hid/hhkb/bm/kds/../../../../../../../../../lib/ksdk_platform_lib/kds/K64F12/debug/libksdk_platform.a(fsl_clock_MK64F12.o)
 .rodata.__func__.7823
                0x00000000       0x1a /opt/Freescale/KSDK_1.2.0/examples/frdmk64f/demo_apps/usb/device/hid/hhkb/bm/kds/../../../../../../../../../lib/ksdk_platform_lib/kds/K64F12/debug/libksdk_platform.a(fsl_clock_MK64F12.o)
 .text          0x00000000        0x0 /opt/Freescale/KSDK_1.2.0/examples/frdmk64f/demo_apps/usb/device/hid/hhkb/bm/kds/../../../../../../../../../lib/ksdk_platform_lib/kds/K64F12/debug/libksdk_platform.a(fsl_clock_manager.o)
 .data          0x00000000        0x0 /opt/Freescale/KSDK_1.2.0/examples/frdmk64f/demo_apps/usb/device/hid/hhkb/bm/kds/../../../../../../../../../lib/ksdk_platform_lib/kds/K64F12/debug/libksdk_platform.a(fsl_clock_manager.o)
 .bss           0x00000000        0x0 /opt/Freescale/KSDK_1.2.0/examples/frdmk64f/demo_apps/usb/device/hid/hhkb/bm/kds/../../../../../../../../../lib/ksdk_platform_lib/kds/K64F12/debug/libksdk_platform.a(fsl_clock_manager.o)
 .text.CLOCK_SYS_Init
                0x00000000       0x40 /opt/Freescale/KSDK_1.2.0/examples/frdmk64f/demo_apps/usb/device/hid/hhkb/bm/kds/../../../../../../../../../lib/ksdk_platform_lib/kds/K64F12/debug/libksdk_platform.a(fsl_clock_manager.o)
 .text.CLOCK_SYS_UpdateConfiguration
                0x00000000       0xfc /opt/Freescale/KSDK_1.2.0/examples/frdmk64f/demo_apps/usb/device/hid/hhkb/bm/kds/../../../../../../../../../lib/ksdk_platform_lib/kds/K64F12/debug/libksdk_platform.a(fsl_clock_manager.o)
 .text.CLOCK_SYS_GetCurrentConfiguration
                0x00000000        0xc /opt/Freescale/KSDK_1.2.0/examples/frdmk64f/demo_apps/usb/device/hid/hhkb/bm/kds/../../../../../../../../../lib/ksdk_platform_lib/kds/K64F12/debug/libksdk_platform.a(fsl_clock_manager.o)
 .text.CLOCK_SYS_GetErrorCallback
                0x00000000       0x18 /opt/Freescale/KSDK_1.2.0/examples/frdmk64f/demo_apps/usb/device/hid/hhkb/bm/kds/../../../../../../../../../lib/ksdk_platform_lib/kds/K64F12/debug/libksdk_platform.a(fsl_clock_manager.o)
 .text.CLOCK_SYS_OscDeinit
                0x00000000       0x4c /opt/Freescale/KSDK_1.2.0/examples/frdmk64f/demo_apps/usb/device/hid/hhkb/bm/kds/../../../../../../../../../lib/ksdk_platform_lib/kds/K64F12/debug/libksdk_platform.a(fsl_clock_manager.o)
 .text.CLOCK_SYS_RtcOscDeinit
                0x00000000       0x34 /opt/Freescale/KSDK_1.2.0/examples/frdmk64f/demo_apps/usb/device/hid/hhkb/bm/kds/../../../../../../../../../lib/ksdk_platform_lib/kds/K64F12/debug/libksdk_platform.a(fsl_clock_manager.o)
 .rodata.__func__.7930
                0x00000000        0xf /opt/Freescale/KSDK_1.2.0/examples/frdmk64f/demo_apps/usb/device/hid/hhkb/bm/kds/../../../../../../../../../lib/ksdk_platform_lib/kds/K64F12/debug/libksdk_platform.a(fsl_clock_manager.o)
 .rodata.__func__.7993
                0x00000000       0x14 /opt/Freescale/KSDK_1.2.0/examples/frdmk64f/demo_apps/usb/device/hid/hhkb/bm/kds/../../../../../../../../../lib/ksdk_platform_lib/kds/K64F12/debug/libksdk_platform.a(fsl_clock_manager.o)
 .bss.g_clockState
                0x00000000       0x10 /opt/Freescale/KSDK_1.2.0/examples/frdmk64f/demo_apps/usb/device/hid/hhkb/bm/kds/../../../../../../../../../lib/ksdk_platform_lib/kds/K64F12/debug/libksdk_platform.a(fsl_clock_manager.o)
 .rodata.__func__.8007
                0x00000000       0x17 /opt/Freescale/KSDK_1.2.0/examples/frdmk64f/demo_apps/usb/device/hid/hhkb/bm/kds/../../../../../../../../../lib/ksdk_platform_lib/kds/K64F12/debug/libksdk_platform.a(fsl_clock_manager.o)
 .text          0x00000000        0x0 /opt/Freescale/KSDK_1.2.0/examples/frdmk64f/demo_apps/usb/device/hid/hhkb/bm/kds/../../../../../../../../../lib/ksdk_platform_lib/kds/K64F12/debug/libksdk_platform.a(fsl_clock_manager_common.o)
 .data          0x00000000        0x0 /opt/Freescale/KSDK_1.2.0/examples/frdmk64f/demo_apps/usb/device/hid/hhkb/bm/kds/../../../../../../../../../lib/ksdk_platform_lib/kds/K64F12/debug/libksdk_platform.a(fsl_clock_manager_common.o)
 .bss           0x00000000        0x0 /opt/Freescale/KSDK_1.2.0/examples/frdmk64f/demo_apps/usb/device/hid/hhkb/bm/kds/../../../../../../../../../lib/ksdk_platform_lib/kds/K64F12/debug/libksdk_platform.a(fsl_clock_manager_common.o)
 .rodata.g_mcgBase
                0x00000000        0x4 /opt/Freescale/KSDK_1.2.0/examples/frdmk64f/demo_apps/usb/device/hid/hhkb/bm/kds/../../../../../../../../../lib/ksdk_platform_lib/kds/K64F12/debug/libksdk_platform.a(fsl_clock_manager_common.o)
 .rodata.g_simBase
                0x00000000        0x4 /opt/Freescale/KSDK_1.2.0/examples/frdmk64f/demo_apps/usb/device/hid/hhkb/bm/kds/../../../../../../../../../lib/ksdk_platform_lib/kds/K64F12/debug/libksdk_platform.a(fsl_clock_manager_common.o)
 .text          0x00000000        0x0 /opt/Freescale/KSDK_1.2.0/examples/frdmk64f/demo_apps/usb/device/hid/hhkb/bm/kds/../../../../../../../../../lib/ksdk_platform_lib/kds/K64F12/debug/libksdk_platform.a(fsl_os_abstraction_bm.o)
 .data          0x00000000        0x0 /opt/Freescale/KSDK_1.2.0/examples/frdmk64f/demo_apps/usb/device/hid/hhkb/bm/kds/../../../../../../../../../lib/ksdk_platform_lib/kds/K64F12/debug/libksdk_platform.a(fsl_os_abstraction_bm.o)
 .bss           0x00000000        0x0 /opt/Freescale/KSDK_1.2.0/examples/frdmk64f/demo_apps/usb/device/hid/hhkb/bm/kds/../../../../../../../../../lib/ksdk_platform_lib/kds/K64F12/debug/libksdk_platform.a(fsl_os_abstraction_bm.o)
 .text.OSA_SemaCreate
                0x00000000       0x2c /opt/Freescale/KSDK_1.2.0/examples/frdmk64f/demo_apps/usb/device/hid/hhkb/bm/kds/../../../../../../../../../lib/ksdk_platform_lib/kds/K64F12/debug/libksdk_platform.a(fsl_os_abstraction_bm.o)
 .text.OSA_SemaPost
                0x00000000       0x3c /opt/Freescale/KSDK_1.2.0/examples/frdmk64f/demo_apps/usb/device/hid/hhkb/bm/kds/../../../../../../../../../lib/ksdk_platform_lib/kds/K64F12/debug/libksdk_platform.a(fsl_os_abstraction_bm.o)
 .text.OSA_SemaDestroy
                0x00000000       0x20 /opt/Freescale/KSDK_1.2.0/examples/frdmk64f/demo_apps/usb/device/hid/hhkb/bm/kds/../../../../../../../../../lib/ksdk_platform_lib/kds/K64F12/debug/libksdk_platform.a(fsl_os_abstraction_bm.o)
 .text.OSA_EventCreate
                0x00000000       0x30 /opt/Freescale/KSDK_1.2.0/examples/frdmk64f/demo_apps/usb/device/hid/hhkb/bm/kds/../../../../../../../../../lib/ksdk_platform_lib/kds/K64F12/debug/libksdk_platform.a(fsl_os_abstraction_bm.o)
 .text.OSA_EventGetFlags
                0x00000000       0x24 /opt/Freescale/KSDK_1.2.0/examples/frdmk64f/demo_apps/usb/device/hid/hhkb/bm/kds/../../../../../../../../../lib/ksdk_platform_lib/kds/K64F12/debug/libksdk_platform.a(fsl_os_abstraction_bm.o)
 .text.OSA_EventSet
                0x00000000       0x34 /opt/Freescale/KSDK_1.2.0/examples/frdmk64f/demo_apps/usb/device/hid/hhkb/bm/kds/../../../../../../../../../lib/ksdk_platform_lib/kds/K64F12/debug/libksdk_platform.a(fsl_os_abstraction_bm.o)
 .text.OSA_EventClear
                0x00000000       0x38 /opt/Freescale/KSDK_1.2.0/examples/frdmk64f/demo_apps/usb/device/hid/hhkb/bm/kds/../../../../../../../../../lib/ksdk_platform_lib/kds/K64F12/debug/libksdk_platform.a(fsl_os_abstraction_bm.o)
 .text.OSA_EventDestroy
                0x00000000       0x24 /opt/Freescale/KSDK_1.2.0/examples/frdmk64f/demo_apps/usb/device/hid/hhkb/bm/kds/../../../../../../../../../lib/ksdk_platform_lib/kds/K64F12/debug/libksdk_platform.a(fsl_os_abstraction_bm.o)
 .text.OSA_TaskCreate
                0x00000000       0x30 /opt/Freescale/KSDK_1.2.0/examples/frdmk64f/demo_apps/usb/device/hid/hhkb/bm/kds/../../../../../../../../../lib/ksdk_platform_lib/kds/K64F12/debug/libksdk_platform.a(fsl_os_abstraction_bm.o)
 .text.OSA_TaskDestroy
                0x00000000       0x4c /opt/Freescale/KSDK_1.2.0/examples/frdmk64f/demo_apps/usb/device/hid/hhkb/bm/kds/../../../../../../../../../lib/ksdk_platform_lib/kds/K64F12/debug/libksdk_platform.a(fsl_os_abstraction_bm.o)
 .text.OSA_TaskYield
                0x00000000        0x4 /opt/Freescale/KSDK_1.2.0/examples/frdmk64f/demo_apps/usb/device/hid/hhkb/bm/kds/../../../../../../../../../lib/ksdk_platform_lib/kds/K64F12/debug/libksdk_platform.a(fsl_os_abstraction_bm.o)
 .text.OSA_TaskGetHandler
                0x00000000        0xc /opt/Freescale/KSDK_1.2.0/examples/frdmk64f/demo_apps/usb/device/hid/hhkb/bm/kds/../../../../../../../../../lib/ksdk_platform_lib/kds/K64F12/debug/libksdk_platform.a(fsl_os_abstraction_bm.o)
 .text.OSA_TaskGetPriority
                0x00000000        0x4 /opt/Freescale/KSDK_1.2.0/examples/frdmk64f/demo_apps/usb/device/hid/hhkb/bm/kds/../../../../../../../../../lib/ksdk_platform_lib/kds/K64F12/debug/libksdk_platform.a(fsl_os_abstraction_bm.o)
 .text.OSA_TaskSetPriority
                0x00000000        0x4 /opt/Freescale/KSDK_1.2.0/examples/frdmk64f/demo_apps/usb/device/hid/hhkb/bm/kds/../../../../../../../../../lib/ksdk_platform_lib/kds/K64F12/debug/libksdk_platform.a(fsl_os_abstraction_bm.o)
 .text.OSA_MsgQCreate
                0x00000000       0x40 /opt/Freescale/KSDK_1.2.0/examples/frdmk64f/demo_apps/usb/device/hid/hhkb/bm/kds/../../../../../../../../../lib/ksdk_platform_lib/kds/K64F12/debug/libksdk_platform.a(fsl_os_abstraction_bm.o)
 .text.OSA_MsgQPut
                0x00000000       0x80 /opt/Freescale/KSDK_1.2.0/examples/frdmk64f/demo_apps/usb/device/hid/hhkb/bm/kds/../../../../../../../../../lib/ksdk_platform_lib/kds/K64F12/debug/libksdk_platform.a(fsl_os_abstraction_bm.o)
 .text.OSA_MsgQDestroy
                0x00000000       0x28 /opt/Freescale/KSDK_1.2.0/examples/frdmk64f/demo_apps/usb/device/hid/hhkb/bm/kds/../../../../../../../../../lib/ksdk_platform_lib/kds/K64F12/debug/libksdk_platform.a(fsl_os_abstraction_bm.o)
 .text.OSA_MemAlloc
                0x00000000        0x4 /opt/Freescale/KSDK_1.2.0/examples/frdmk64f/demo_apps/usb/device/hid/hhkb/bm/kds/../../../../../../../../../lib/ksdk_platform_lib/kds/K64F12/debug/libksdk_platform.a(fsl_os_abstraction_bm.o)
 .text.OSA_SemaWait
                0x00000000       0x88 /opt/Freescale/KSDK_1.2.0/examples/frdmk64f/demo_apps/usb/device/hid/hhkb/bm/kds/../../../../../../../../../lib/ksdk_platform_lib/kds/K64F12/debug/libksdk_platform.a(fsl_os_abstraction_bm.o)
 .text.OSA_MsgQGet
                0x00000000       0x90 /opt/Freescale/KSDK_1.2.0/examples/frdmk64f/demo_apps/usb/device/hid/hhkb/bm/kds/../../../../../../../../../lib/ksdk_platform_lib/kds/K64F12/debug/libksdk_platform.a(fsl_os_abstraction_bm.o)
 .text.OSA_EventWait
                0x00000000       0xa8 /opt/Freescale/KSDK_1.2.0/examples/frdmk64f/demo_apps/usb/device/hid/hhkb/bm/kds/../../../../../../../../../lib/ksdk_platform_lib/kds/K64F12/debug/libksdk_platform.a(fsl_os_abstraction_bm.o)
 .text.OSA_TimeDelay
                0x00000000       0x1c /opt/Freescale/KSDK_1.2.0/examples/frdmk64f/demo_apps/usb/device/hid/hhkb/bm/kds/../../../../../../../../../lib/ksdk_platform_lib/kds/K64F12/debug/libksdk_platform.a(fsl_os_abstraction_bm.o)
 .text.OSA_PollAllOtherTasks
                0x00000000       0x34 /opt/Freescale/KSDK_1.2.0/examples/frdmk64f/demo_apps/usb/device/hid/hhkb/bm/kds/../../../../../../../../../lib/ksdk_platform_lib/kds/K64F12/debug/libksdk_platform.a(fsl_os_abstraction_bm.o)
 .rodata.__func__.7889
                0x00000000        0xd /opt/Freescale/KSDK_1.2.0/examples/frdmk64f/demo_apps/usb/device/hid/hhkb/bm/kds/../../../../../../../../../lib/ksdk_platform_lib/kds/K64F12/debug/libksdk_platform.a(fsl_os_abstraction_bm.o)
 .rodata.__func__.7925
                0x00000000        0xe /opt/Freescale/KSDK_1.2.0/examples/frdmk64f/demo_apps/usb/device/hid/hhkb/bm/kds/../../../../../../../../../lib/ksdk_platform_lib/kds/K64F12/debug/libksdk_platform.a(fsl_os_abstraction_bm.o)
 .rodata.__func__.7916
                0x00000000       0x10 /opt/Freescale/KSDK_1.2.0/examples/frdmk64f/demo_apps/usb/device/hid/hhkb/bm/kds/../../../../../../../../../lib/ksdk_platform_lib/kds/K64F12/debug/libksdk_platform.a(fsl_os_abstraction_bm.o)
 .rodata.__func__.7879
                0x00000000        0xf /opt/Freescale/KSDK_1.2.0/examples/frdmk64f/demo_apps/usb/device/hid/hhkb/bm/kds/../../../../../../../../../lib/ksdk_platform_lib/kds/K64F12/debug/libksdk_platform.a(fsl_os_abstraction_bm.o)
 .rodata.__func__.7885
                0x00000000        0xd /opt/Freescale/KSDK_1.2.0/examples/frdmk64f/demo_apps/usb/device/hid/hhkb/bm/kds/../../../../../../../../../lib/ksdk_platform_lib/kds/K64F12/debug/libksdk_platform.a(fsl_os_abstraction_bm.o)
 .rodata.__func__.7930
                0x00000000       0x12 /opt/Freescale/KSDK_1.2.0/examples/frdmk64f/demo_apps/usb/device/hid/hhkb/bm/kds/../../../../../../../../../lib/ksdk_platform_lib/kds/K64F12/debug/libksdk_platform.a(fsl_os_abstraction_bm.o)
 .rodata.__func__.7893
                0x00000000       0x10 /opt/Freescale/KSDK_1.2.0/examples/frdmk64f/demo_apps/usb/device/hid/hhkb/bm/kds/../../../../../../../../../lib/ksdk_platform_lib/kds/K64F12/debug/libksdk_platform.a(fsl_os_abstraction_bm.o)
 .rodata.__func__.7935
                0x00000000        0xd /opt/Freescale/KSDK_1.2.0/examples/frdmk64f/demo_apps/usb/device/hid/hhkb/bm/kds/../../../../../../../../../lib/ksdk_platform_lib/kds/K64F12/debug/libksdk_platform.a(fsl_os_abstraction_bm.o)
 .rodata.__func__.7940
                0x00000000        0xf /opt/Freescale/KSDK_1.2.0/examples/frdmk64f/demo_apps/usb/device/hid/hhkb/bm/kds/../../../../../../../../../lib/ksdk_platform_lib/kds/K64F12/debug/libksdk_platform.a(fsl_os_abstraction_bm.o)
 .rodata.__func__.8018
                0x00000000       0x10 /opt/Freescale/KSDK_1.2.0/examples/frdmk64f/demo_apps/usb/device/hid/hhkb/bm/kds/../../../../../../../../../lib/ksdk_platform_lib/kds/K64F12/debug/libksdk_platform.a(fsl_os_abstraction_bm.o)
 .rodata.__func__.7944
                0x00000000       0x11 /opt/Freescale/KSDK_1.2.0/examples/frdmk64f/demo_apps/usb/device/hid/hhkb/bm/kds/../../../../../../../../../lib/ksdk_platform_lib/kds/K64F12/debug/libksdk_platform.a(fsl_os_abstraction_bm.o)
 .rodata.__func__.7971
                0x00000000       0x10 /opt/Freescale/KSDK_1.2.0/examples/frdmk64f/demo_apps/usb/device/hid/hhkb/bm/kds/../../../../../../../../../lib/ksdk_platform_lib/kds/K64F12/debug/libksdk_platform.a(fsl_os_abstraction_bm.o)
 .rodata.__func__.7990
                0x00000000        0xf /opt/Freescale/KSDK_1.2.0/examples/frdmk64f/demo_apps/usb/device/hid/hhkb/bm/kds/../../../../../../../../../lib/ksdk_platform_lib/kds/K64F12/debug/libksdk_platform.a(fsl_os_abstraction_bm.o)
 .rodata.__func__.8007
                0x00000000        0xc /opt/Freescale/KSDK_1.2.0/examples/frdmk64f/demo_apps/usb/device/hid/hhkb/bm/kds/../../../../../../../../../lib/ksdk_platform_lib/kds/K64F12/debug/libksdk_platform.a(fsl_os_abstraction_bm.o)
 .rodata.__func__.7995
                0x00000000        0xc /opt/Freescale/KSDK_1.2.0/examples/frdmk64f/demo_apps/usb/device/hid/hhkb/bm/kds/../../../../../../../../../lib/ksdk_platform_lib/kds/K64F12/debug/libksdk_platform.a(fsl_os_abstraction_bm.o)
 .text          0x00000000        0x0 /opt/Freescale/KSDK_1.2.0/examples/frdmk64f/demo_apps/usb/device/hid/hhkb/bm/kds/../../../../../../../../../lib/ksdk_platform_lib/kds/K64F12/debug/libksdk_platform.a(fsl_rtc_common.o)
 .data          0x00000000        0x0 /opt/Freescale/KSDK_1.2.0/examples/frdmk64f/demo_apps/usb/device/hid/hhkb/bm/kds/../../../../../../../../../lib/ksdk_platform_lib/kds/K64F12/debug/libksdk_platform.a(fsl_rtc_common.o)
 .bss           0x00000000        0x0 /opt/Freescale/KSDK_1.2.0/examples/frdmk64f/demo_apps/usb/device/hid/hhkb/bm/kds/../../../../../../../../../lib/ksdk_platform_lib/kds/K64F12/debug/libksdk_platform.a(fsl_rtc_common.o)
 .rodata.g_rtcSecondsIrqId
                0x00000000        0x1 /opt/Freescale/KSDK_1.2.0/examples/frdmk64f/demo_apps/usb/device/hid/hhkb/bm/kds/../../../../../../../../../lib/ksdk_platform_lib/kds/K64F12/debug/libksdk_platform.a(fsl_rtc_common.o)
 .rodata.g_rtcIrqId
                0x00000000        0x1 /opt/Freescale/KSDK_1.2.0/examples/frdmk64f/demo_apps/usb/device/hid/hhkb/bm/kds/../../../../../../../../../lib/ksdk_platform_lib/kds/K64F12/debug/libksdk_platform.a(fsl_rtc_common.o)
 .text          0x00000000        0x0 /opt/Freescale/KSDK_1.2.0/examples/frdmk64f/demo_apps/usb/device/hid/hhkb/bm/kds/../../../../../../../../../lib/ksdk_platform_lib/kds/K64F12/debug/libksdk_platform.a(fsl_osc_hal.o)
 .data          0x00000000        0x0 /opt/Freescale/KSDK_1.2.0/examples/frdmk64f/demo_apps/usb/device/hid/hhkb/bm/kds/../../../../../../../../../lib/ksdk_platform_lib/kds/K64F12/debug/libksdk_platform.a(fsl_osc_hal.o)
 .bss           0x00000000        0x0 /opt/Freescale/KSDK_1.2.0/examples/frdmk64f/demo_apps/usb/device/hid/hhkb/bm/kds/../../../../../../../../../lib/ksdk_platform_lib/kds/K64F12/debug/libksdk_platform.a(fsl_osc_hal.o)
 .text          0x00000000        0x0 /opt/Freescale/KSDK_1.2.0/examples/frdmk64f/demo_apps/usb/device/hid/hhkb/bm/kds/../../../../../../../../../lib/ksdk_platform_lib/kds/K64F12/debug/libksdk_platform.a(fsl_mcg_hal.o)
 .data          0x00000000        0x0 /opt/Freescale/KSDK_1.2.0/examples/frdmk64f/demo_apps/usb/device/hid/hhkb/bm/kds/../../../../../../../../../lib/ksdk_platform_lib/kds/K64F12/debug/libksdk_platform.a(fsl_mcg_hal.o)
 .bss           0x00000000        0x0 /opt/Freescale/KSDK_1.2.0/examples/frdmk64f/demo_apps/usb/device/hid/hhkb/bm/kds/../../../../../../../../../lib/ksdk_platform_lib/kds/K64F12/debug/libksdk_platform.a(fsl_mcg_hal.o)
 .text.CLOCK_HAL_GetAvailableFrdiv
                0x00000000       0x6c /opt/Freescale/KSDK_1.2.0/examples/frdmk64f/demo_apps/usb/device/hid/hhkb/bm/kds/../../../../../../../../../lib/ksdk_platform_lib/kds/K64F12/debug/libksdk_platform.a(fsl_mcg_hal.o)
 .text.CLOCK_HAL_CalculatePllDiv
                0x00000000       0xc0 /opt/Freescale/KSDK_1.2.0/examples/frdmk64f/demo_apps/usb/device/hid/hhkb/bm/kds/../../../../../../../../../lib/ksdk_platform_lib/kds/K64F12/debug/libksdk_platform.a(fsl_mcg_hal.o)
 .text.CLOCK_HAL_GetPll0RefFreq
                0x00000000        0x4 /opt/Freescale/KSDK_1.2.0/examples/frdmk64f/demo_apps/usb/device/hid/hhkb/bm/kds/../../../../../../../../../lib/ksdk_platform_lib/kds/K64F12/debug/libksdk_platform.a(fsl_mcg_hal.o)
 .text.CLOCK_HAL_GetFixedFreqClk
                0x00000000       0x20 /opt/Freescale/KSDK_1.2.0/examples/frdmk64f/demo_apps/usb/device/hid/hhkb/bm/kds/../../../../../../../../../lib/ksdk_platform_lib/kds/K64F12/debug/libksdk_platform.a(fsl_mcg_hal.o)
 .text.CLOCK_HAL_EnableOsc0Monitor
                0x00000000       0x18 /opt/Freescale/KSDK_1.2.0/examples/frdmk64f/demo_apps/usb/device/hid/hhkb/bm/kds/../../../../../../../../../lib/ksdk_platform_lib/kds/K64F12/debug/libksdk_platform.a(fsl_mcg_hal.o)
 .text.CLOCK_HAL_EnableRtcOscMonitor
                0x00000000       0x10 /opt/Freescale/KSDK_1.2.0/examples/frdmk64f/demo_apps/usb/device/hid/hhkb/bm/kds/../../../../../../../../../lib/ksdk_platform_lib/kds/K64F12/debug/libksdk_platform.a(fsl_mcg_hal.o)
 .text.CLOCK_HAL_TrimInternalRefClk
                0x00000000       0xa8 /opt/Freescale/KSDK_1.2.0/examples/frdmk64f/demo_apps/usb/device/hid/hhkb/bm/kds/../../../../../../../../../lib/ksdk_platform_lib/kds/K64F12/debug/libksdk_platform.a(fsl_mcg_hal.o)
 .rodata.freqLow_kHz.6348
                0x00000000       0x10 /opt/Freescale/KSDK_1.2.0/examples/frdmk64f/demo_apps/usb/device/hid/hhkb/bm/kds/../../../../../../../../../lib/ksdk_platform_lib/kds/K64F12/debug/libksdk_platform.a(fsl_mcg_hal.o)
 .rodata.freq_kHz.6347
                0x00000000       0x10 /opt/Freescale/KSDK_1.2.0/examples/frdmk64f/demo_apps/usb/device/hid/hhkb/bm/kds/../../../../../../../../../lib/ksdk_platform_lib/kds/K64F12/debug/libksdk_platform.a(fsl_mcg_hal.o)
 .text          0x00000000        0x0 /opt/Freescale/KSDK_1.2.0/examples/frdmk64f/demo_apps/usb/device/hid/hhkb/bm/kds/../../../../../../../../../lib/ksdk_platform_lib/kds/K64F12/debug/libksdk_platform.a(fsl_mcg_hal_modes.o)
 .data          0x00000000        0x0 /opt/Freescale/KSDK_1.2.0/examples/frdmk64f/demo_apps/usb/device/hid/hhkb/bm/kds/../../../../../../../../../lib/ksdk_platform_lib/kds/K64F12/debug/libksdk_platform.a(fsl_mcg_hal_modes.o)
 .bss           0x00000000        0x0 /opt/Freescale/KSDK_1.2.0/examples/frdmk64f/demo_apps/usb/device/hid/hhkb/bm/kds/../../../../../../../../../lib/ksdk_platform_lib/kds/K64F12/debug/libksdk_platform.a(fsl_mcg_hal_modes.o)
 .text.CLOCK_HAL_SetFeiMode
                0x00000000       0x90 /opt/Freescale/KSDK_1.2.0/examples/frdmk64f/demo_apps/usb/device/hid/hhkb/bm/kds/../../../../../../../../../lib/ksdk_platform_lib/kds/K64F12/debug/libksdk_platform.a(fsl_mcg_hal_modes.o)
 .text.CLOCK_HAL_SetFeeMode
                0x00000000      0x102 /opt/Freescale/KSDK_1.2.0/examples/frdmk64f/demo_apps/usb/device/hid/hhkb/bm/kds/../../../../../../../../../lib/ksdk_platform_lib/kds/K64F12/debug/libksdk_platform.a(fsl_mcg_hal_modes.o)
 .text.CLOCK_HAL_SetBlpiMode
                0x00000000       0x64 /opt/Freescale/KSDK_1.2.0/examples/frdmk64f/demo_apps/usb/device/hid/hhkb/bm/kds/../../../../../../../../../lib/ksdk_platform_lib/kds/K64F12/debug/libksdk_platform.a(fsl_mcg_hal_modes.o)
 .text.CLOCK_HAL_SetBlpeMode
                0x00000000       0x40 /opt/Freescale/KSDK_1.2.0/examples/frdmk64f/demo_apps/usb/device/hid/hhkb/bm/kds/../../../../../../../../../lib/ksdk_platform_lib/kds/K64F12/debug/libksdk_platform.a(fsl_mcg_hal_modes.o)
 .text.CLOCK_HAL_SetPeeMode
                0x00000000       0x30 /opt/Freescale/KSDK_1.2.0/examples/frdmk64f/demo_apps/usb/device/hid/hhkb/bm/kds/../../../../../../../../../lib/ksdk_platform_lib/kds/K64F12/debug/libksdk_platform.a(fsl_mcg_hal_modes.o)
 .text          0x00000000        0x0 /opt/Freescale/KSDK_1.2.0/examples/frdmk64f/demo_apps/usb/device/hid/hhkb/bm/kds/../../../../../../../../../lib/ksdk_platform_lib/kds/K64F12/debug/libksdk_platform.a(fsl_lptmr_hal.o)
 .data          0x00000000        0x0 /opt/Freescale/KSDK_1.2.0/examples/frdmk64f/demo_apps/usb/device/hid/hhkb/bm/kds/../../../../../../../../../lib/ksdk_platform_lib/kds/K64F12/debug/libksdk_platform.a(fsl_lptmr_hal.o)
 .bss           0x00000000        0x0 /opt/Freescale/KSDK_1.2.0/examples/frdmk64f/demo_apps/usb/device/hid/hhkb/bm/kds/../../../../../../../../../lib/ksdk_platform_lib/kds/K64F12/debug/libksdk_platform.a(fsl_lptmr_hal.o)
 .text.LPTMR_HAL_Init
                0x00000000       0x26 /opt/Freescale/KSDK_1.2.0/examples/frdmk64f/demo_apps/usb/device/hid/hhkb/bm/kds/../../../../../../../../../lib/ksdk_platform_lib/kds/K64F12/debug/libksdk_platform.a(fsl_lptmr_hal.o)
 .text          0x00000000        0x0 /opt/Freescale/KSDK_1.2.0/examples/frdmk64f/demo_apps/usb/device/hid/hhkb/bm/kds/../../../../../../../../../lib/ksdk_platform_lib/kds/K64F12/debug/libksdk_platform.a(fsl_lptmr_common.o)
 .data          0x00000000        0x0 /opt/Freescale/KSDK_1.2.0/examples/frdmk64f/demo_apps/usb/device/hid/hhkb/bm/kds/../../../../../../../../../lib/ksdk_platform_lib/kds/K64F12/debug/libksdk_platform.a(fsl_lptmr_common.o)
 .bss           0x00000000        0x0 /opt/Freescale/KSDK_1.2.0/examples/frdmk64f/demo_apps/usb/device/hid/hhkb/bm/kds/../../../../../../../../../lib/ksdk_platform_lib/kds/K64F12/debug/libksdk_platform.a(fsl_lptmr_common.o)
 .text          0x00000000        0x0 /opt/Freescale/KSDK_1.2.0/examples/frdmk64f/demo_apps/usb/device/hid/hhkb/bm/kds/../../../../../../../../../lib/ksdk_platform_lib/kds/K64F12/debug/libksdk_platform.a(fsl_interrupt_manager.o)
 .data          0x00000000        0x0 /opt/Freescale/KSDK_1.2.0/examples/frdmk64f/demo_apps/usb/device/hid/hhkb/bm/kds/../../../../../../../../../lib/ksdk_platform_lib/kds/K64F12/debug/libksdk_platform.a(fsl_interrupt_manager.o)
 .bss           0x00000000        0x0 /opt/Freescale/KSDK_1.2.0/examples/frdmk64f/demo_apps/usb/device/hid/hhkb/bm/kds/../../../../../../../../../lib/ksdk_platform_lib/kds/K64F12/debug/libksdk_platform.a(fsl_interrupt_manager.o)
 .text          0x00000000        0x0 /opt/Freescale/KSDK_1.2.0/examples/frdmk64f/demo_apps/usb/device/hid/hhkb/bm/kds/../../../../../../../../../lib/ksdk_platform_lib/kds/K64F12/debug/libksdk_platform.a(fsl_gpio_hal.o)
 .data          0x00000000        0x0 /opt/Freescale/KSDK_1.2.0/examples/frdmk64f/demo_apps/usb/device/hid/hhkb/bm/kds/../../../../../../../../../lib/ksdk_platform_lib/kds/K64F12/debug/libksdk_platform.a(fsl_gpio_hal.o)
 .bss           0x00000000        0x0 /opt/Freescale/KSDK_1.2.0/examples/frdmk64f/demo_apps/usb/device/hid/hhkb/bm/kds/../../../../../../../../../lib/ksdk_platform_lib/kds/K64F12/debug/libksdk_platform.a(fsl_gpio_hal.o)
 .text          0x00000000        0x0 /opt/Freescale/KSDK_1.2.0/examples/frdmk64f/demo_apps/usb/device/hid/hhkb/bm/kds/../../../../../../../../../lib/ksdk_platform_lib/kds/K64F12/debug/libksdk_platform.a(fsl_gpio_common.o)
 .data          0x00000000        0x0 /opt/Freescale/KSDK_1.2.0/examples/frdmk64f/demo_apps/usb/device/hid/hhkb/bm/kds/../../../../../../../../../lib/ksdk_platform_lib/kds/K64F12/debug/libksdk_platform.a(fsl_gpio_common.o)
 .bss           0x00000000        0x0 /opt/Freescale/KSDK_1.2.0/examples/frdmk64f/demo_apps/usb/device/hid/hhkb/bm/kds/../../../../../../../../../lib/ksdk_platform_lib/kds/K64F12/debug/libksdk_platform.a(fsl_gpio_common.o)
 .text          0x00000000        0x0 /opt/Freescale/KDS_3.0.0/toolchain/bin/../lib/gcc/arm-none-eabi/4.8.4/../../../../arm-none-eabi/lib/armv7e-m/fpu/libg_s.a(lib_a-assert.o)
 .data          0x00000000        0x0 /opt/Freescale/KDS_3.0.0/toolchain/bin/../lib/gcc/arm-none-eabi/4.8.4/../../../../arm-none-eabi/lib/armv7e-m/fpu/libg_s.a(lib_a-assert.o)
 .bss           0x00000000        0x0 /opt/Freescale/KDS_3.0.0/toolchain/bin/../lib/gcc/arm-none-eabi/4.8.4/../../../../arm-none-eabi/lib/armv7e-m/fpu/libg_s.a(lib_a-assert.o)
 .text.__assert
                0x00000000        0xa /opt/Freescale/KDS_3.0.0/toolchain/bin/../lib/gcc/arm-none-eabi/4.8.4/../../../../arm-none-eabi/lib/armv7e-m/fpu/libg_s.a(lib_a-assert.o)
 .text          0x00000000        0x0 /opt/Freescale/KDS_3.0.0/toolchain/bin/../lib/gcc/arm-none-eabi/4.8.4/../../../../arm-none-eabi/lib/armv7e-m/fpu/libg_s.a(lib_a-calloc.o)
 .data          0x00000000        0x0 /opt/Freescale/KDS_3.0.0/toolchain/bin/../lib/gcc/arm-none-eabi/4.8.4/../../../../arm-none-eabi/lib/armv7e-m/fpu/libg_s.a(lib_a-calloc.o)
 .bss           0x00000000        0x0 /opt/Freescale/KDS_3.0.0/toolchain/bin/../lib/gcc/arm-none-eabi/4.8.4/../../../../arm-none-eabi/lib/armv7e-m/fpu/libg_s.a(lib_a-calloc.o)
 .text          0x00000000        0x0 /opt/Freescale/KDS_3.0.0/toolchain/bin/../lib/gcc/arm-none-eabi/4.8.4/../../../../arm-none-eabi/lib/armv7e-m/fpu/libg_s.a(lib_a-errno.o)
 .data          0x00000000        0x0 /opt/Freescale/KDS_3.0.0/toolchain/bin/../lib/gcc/arm-none-eabi/4.8.4/../../../../arm-none-eabi/lib/armv7e-m/fpu/libg_s.a(lib_a-errno.o)
 .bss           0x00000000        0x0 /opt/Freescale/KDS_3.0.0/toolchain/bin/../lib/gcc/arm-none-eabi/4.8.4/../../../../arm-none-eabi/lib/armv7e-m/fpu/libg_s.a(lib_a-errno.o)
 .text          0x00000000        0x0 /opt/Freescale/KDS_3.0.0/toolchain/bin/../lib/gcc/arm-none-eabi/4.8.4/../../../../arm-none-eabi/lib/armv7e-m/fpu/libg_s.a(lib_a-exit.o)
 .data          0x00000000        0x0 /opt/Freescale/KDS_3.0.0/toolchain/bin/../lib/gcc/arm-none-eabi/4.8.4/../../../../arm-none-eabi/lib/armv7e-m/fpu/libg_s.a(lib_a-exit.o)
 .bss           0x00000000        0x0 /opt/Freescale/KDS_3.0.0/toolchain/bin/../lib/gcc/arm-none-eabi/4.8.4/../../../../arm-none-eabi/lib/armv7e-m/fpu/libg_s.a(lib_a-exit.o)
 .text          0x00000000        0x0 /opt/Freescale/KDS_3.0.0/toolchain/bin/../lib/gcc/arm-none-eabi/4.8.4/../../../../arm-none-eabi/lib/armv7e-m/fpu/libg_s.a(lib_a-fprintf.o)
 .data          0x00000000        0x0 /opt/Freescale/KDS_3.0.0/toolchain/bin/../lib/gcc/arm-none-eabi/4.8.4/../../../../arm-none-eabi/lib/armv7e-m/fpu/libg_s.a(lib_a-fprintf.o)
 .bss           0x00000000        0x0 /opt/Freescale/KDS_3.0.0/toolchain/bin/../lib/gcc/arm-none-eabi/4.8.4/../../../../arm-none-eabi/lib/armv7e-m/fpu/libg_s.a(lib_a-fprintf.o)
 .text._fprintf_r
                0x00000000       0x1a /opt/Freescale/KDS_3.0.0/toolchain/bin/../lib/gcc/arm-none-eabi/4.8.4/../../../../arm-none-eabi/lib/armv7e-m/fpu/libg_s.a(lib_a-fprintf.o)
 .text          0x00000000        0x0 /opt/Freescale/KDS_3.0.0/toolchain/bin/../lib/gcc/arm-none-eabi/4.8.4/../../../../arm-none-eabi/lib/armv7e-m/fpu/libg_s.a(lib_a-impure.o)
 .data          0x00000000        0x0 /opt/Freescale/KDS_3.0.0/toolchain/bin/../lib/gcc/arm-none-eabi/4.8.4/../../../../arm-none-eabi/lib/armv7e-m/fpu/libg_s.a(lib_a-impure.o)
 .bss           0x00000000        0x0 /opt/Freescale/KDS_3.0.0/toolchain/bin/../lib/gcc/arm-none-eabi/4.8.4/../../../../arm-none-eabi/lib/armv7e-m/fpu/libg_s.a(lib_a-impure.o)
 .text          0x00000000        0x0 /opt/Freescale/KDS_3.0.0/toolchain/bin/../lib/gcc/arm-none-eabi/4.8.4/../../../../arm-none-eabi/lib/armv7e-m/fpu/libg_s.a(lib_a-init.o)
 .data          0x00000000        0x0 /opt/Freescale/KDS_3.0.0/toolchain/bin/../lib/gcc/arm-none-eabi/4.8.4/../../../../arm-none-eabi/lib/armv7e-m/fpu/libg_s.a(lib_a-init.o)
 .bss           0x00000000        0x0 /opt/Freescale/KDS_3.0.0/toolchain/bin/../lib/gcc/arm-none-eabi/4.8.4/../../../../arm-none-eabi/lib/armv7e-m/fpu/libg_s.a(lib_a-init.o)
 .text          0x00000000        0x0 /opt/Freescale/KDS_3.0.0/toolchain/bin/../lib/gcc/arm-none-eabi/4.8.4/../../../../arm-none-eabi/lib/armv7e-m/fpu/libg_s.a(lib_a-malloc.o)
 .data          0x00000000        0x0 /opt/Freescale/KDS_3.0.0/toolchain/bin/../lib/gcc/arm-none-eabi/4.8.4/../../../../arm-none-eabi/lib/armv7e-m/fpu/libg_s.a(lib_a-malloc.o)
 .bss           0x00000000        0x0 /opt/Freescale/KDS_3.0.0/toolchain/bin/../lib/gcc/arm-none-eabi/4.8.4/../../../../arm-none-eabi/lib/armv7e-m/fpu/libg_s.a(lib_a-malloc.o)
 .text.malloc   0x00000000       0x10 /opt/Freescale/KDS_3.0.0/toolchain/bin/../lib/gcc/arm-none-eabi/4.8.4/../../../../arm-none-eabi/lib/armv7e-m/fpu/libg_s.a(lib_a-malloc.o)
 .text          0x00000000        0x0 /opt/Freescale/KDS_3.0.0/toolchain/bin/../lib/gcc/arm-none-eabi/4.8.4/../../../../arm-none-eabi/lib/armv7e-m/fpu/libg_s.a(lib_a-memcpy-stub.o)
 .data          0x00000000        0x0 /opt/Freescale/KDS_3.0.0/toolchain/bin/../lib/gcc/arm-none-eabi/4.8.4/../../../../arm-none-eabi/lib/armv7e-m/fpu/libg_s.a(lib_a-memcpy-stub.o)
 .bss           0x00000000        0x0 /opt/Freescale/KDS_3.0.0/toolchain/bin/../lib/gcc/arm-none-eabi/4.8.4/../../../../arm-none-eabi/lib/armv7e-m/fpu/libg_s.a(lib_a-memcpy-stub.o)
 .text          0x00000000        0x0 /opt/Freescale/KDS_3.0.0/toolchain/bin/../lib/gcc/arm-none-eabi/4.8.4/../../../../arm-none-eabi/lib/armv7e-m/fpu/libg_s.a(lib_a-memset.o)
 .data          0x00000000        0x0 /opt/Freescale/KDS_3.0.0/toolchain/bin/../lib/gcc/arm-none-eabi/4.8.4/../../../../arm-none-eabi/lib/armv7e-m/fpu/libg_s.a(lib_a-memset.o)
 .bss           0x00000000        0x0 /opt/Freescale/KDS_3.0.0/toolchain/bin/../lib/gcc/arm-none-eabi/4.8.4/../../../../arm-none-eabi/lib/armv7e-m/fpu/libg_s.a(lib_a-memset.o)
 .text          0x00000000        0x0 /opt/Freescale/KDS_3.0.0/toolchain/bin/../lib/gcc/arm-none-eabi/4.8.4/../../../../arm-none-eabi/lib/armv7e-m/fpu/libg_s.a(lib_a-nano-callocr.o)
 .data          0x00000000        0x0 /opt/Freescale/KDS_3.0.0/toolchain/bin/../lib/gcc/arm-none-eabi/4.8.4/../../../../arm-none-eabi/lib/armv7e-m/fpu/libg_s.a(lib_a-nano-callocr.o)
 .bss           0x00000000        0x0 /opt/Freescale/KDS_3.0.0/toolchain/bin/../lib/gcc/arm-none-eabi/4.8.4/../../../../arm-none-eabi/lib/armv7e-m/fpu/libg_s.a(lib_a-nano-callocr.o)
 .text          0x00000000        0x0 /opt/Freescale/KDS_3.0.0/toolchain/bin/../lib/gcc/arm-none-eabi/4.8.4/../../../../arm-none-eabi/lib/armv7e-m/fpu/libg_s.a(lib_a-nano-freer.o)
 .data          0x00000000        0x0 /opt/Freescale/KDS_3.0.0/toolchain/bin/../lib/gcc/arm-none-eabi/4.8.4/../../../../arm-none-eabi/lib/armv7e-m/fpu/libg_s.a(lib_a-nano-freer.o)
 .bss           0x00000000        0x0 /opt/Freescale/KDS_3.0.0/toolchain/bin/../lib/gcc/arm-none-eabi/4.8.4/../../../../arm-none-eabi/lib/armv7e-m/fpu/libg_s.a(lib_a-nano-freer.o)
 .text          0x00000000        0x0 /opt/Freescale/KDS_3.0.0/toolchain/bin/../lib/gcc/arm-none-eabi/4.8.4/../../../../arm-none-eabi/lib/armv7e-m/fpu/libg_s.a(lib_a-nano-mallocr.o)
 .data          0x00000000        0x0 /opt/Freescale/KDS_3.0.0/toolchain/bin/../lib/gcc/arm-none-eabi/4.8.4/../../../../arm-none-eabi/lib/armv7e-m/fpu/libg_s.a(lib_a-nano-mallocr.o)
 .bss           0x00000000        0x0 /opt/Freescale/KDS_3.0.0/toolchain/bin/../lib/gcc/arm-none-eabi/4.8.4/../../../../arm-none-eabi/lib/armv7e-m/fpu/libg_s.a(lib_a-nano-mallocr.o)
 .text          0x00000000        0x0 /opt/Freescale/KDS_3.0.0/toolchain/bin/../lib/gcc/arm-none-eabi/4.8.4/../../../../arm-none-eabi/lib/armv7e-m/fpu/libg_s.a(lib_a-sbrkr.o)
 .data          0x00000000        0x0 /opt/Freescale/KDS_3.0.0/toolchain/bin/../lib/gcc/arm-none-eabi/4.8.4/../../../../arm-none-eabi/lib/armv7e-m/fpu/libg_s.a(lib_a-sbrkr.o)
 .bss           0x00000000        0x0 /opt/Freescale/KDS_3.0.0/toolchain/bin/../lib/gcc/arm-none-eabi/4.8.4/../../../../arm-none-eabi/lib/armv7e-m/fpu/libg_s.a(lib_a-sbrkr.o)
 .text          0x00000000        0x0 /opt/Freescale/KDS_3.0.0/toolchain/bin/../lib/gcc/arm-none-eabi/4.8.4/../../../../arm-none-eabi/lib/armv7e-m/fpu/libg_s.a(lib_a-strlen.o)
 .data          0x00000000        0x0 /opt/Freescale/KDS_3.0.0/toolchain/bin/../lib/gcc/arm-none-eabi/4.8.4/../../../../arm-none-eabi/lib/armv7e-m/fpu/libg_s.a(lib_a-strlen.o)
 .bss           0x00000000        0x0 /opt/Freescale/KDS_3.0.0/toolchain/bin/../lib/gcc/arm-none-eabi/4.8.4/../../../../arm-none-eabi/lib/armv7e-m/fpu/libg_s.a(lib_a-strlen.o)
 .text          0x00000000        0x0 /opt/Freescale/KDS_3.0.0/toolchain/bin/../lib/gcc/arm-none-eabi/4.8.4/../../../../arm-none-eabi/lib/armv7e-m/fpu/libg_s.a(lib_a-vfprintf.o)
 .data          0x00000000        0x0 /opt/Freescale/KDS_3.0.0/toolchain/bin/../lib/gcc/arm-none-eabi/4.8.4/../../../../arm-none-eabi/lib/armv7e-m/fpu/libg_s.a(lib_a-vfprintf.o)
 .bss           0x00000000        0x0 /opt/Freescale/KDS_3.0.0/toolchain/bin/../lib/gcc/arm-none-eabi/4.8.4/../../../../arm-none-eabi/lib/armv7e-m/fpu/libg_s.a(lib_a-vfprintf.o)
 .text.__sprint_r
                0x00000000       0x1a /opt/Freescale/KDS_3.0.0/toolchain/bin/../lib/gcc/arm-none-eabi/4.8.4/../../../../arm-none-eabi/lib/armv7e-m/fpu/libg_s.a(lib_a-vfprintf.o)
 .text.vfprintf
                0x00000000       0x1c /opt/Freescale/KDS_3.0.0/toolchain/bin/../lib/gcc/arm-none-eabi/4.8.4/../../../../arm-none-eabi/lib/armv7e-m/fpu/libg_s.a(lib_a-vfprintf.o)
 .text          0x00000000        0x0 /opt/Freescale/KDS_3.0.0/toolchain/bin/../lib/gcc/arm-none-eabi/4.8.4/../../../../arm-none-eabi/lib/armv7e-m/fpu/libg_s.a(lib_a-vfprintf_i.o)
 .data          0x00000000        0x0 /opt/Freescale/KDS_3.0.0/toolchain/bin/../lib/gcc/arm-none-eabi/4.8.4/../../../../arm-none-eabi/lib/armv7e-m/fpu/libg_s.a(lib_a-vfprintf_i.o)
 .bss           0x00000000        0x0 /opt/Freescale/KDS_3.0.0/toolchain/bin/../lib/gcc/arm-none-eabi/4.8.4/../../../../arm-none-eabi/lib/armv7e-m/fpu/libg_s.a(lib_a-vfprintf_i.o)
 .text          0x00000000        0x0 /opt/Freescale/KDS_3.0.0/toolchain/bin/../lib/gcc/arm-none-eabi/4.8.4/../../../../arm-none-eabi/lib/armv7e-m/fpu/libg_s.a(lib_a-wbuf.o)
 .data          0x00000000        0x0 /opt/Freescale/KDS_3.0.0/toolchain/bin/../lib/gcc/arm-none-eabi/4.8.4/../../../../arm-none-eabi/lib/armv7e-m/fpu/libg_s.a(lib_a-wbuf.o)
 .bss           0x00000000        0x0 /opt/Freescale/KDS_3.0.0/toolchain/bin/../lib/gcc/arm-none-eabi/4.8.4/../../../../arm-none-eabi/lib/armv7e-m/fpu/libg_s.a(lib_a-wbuf.o)
 .text.__swbuf  0x00000000       0x14 /opt/Freescale/KDS_3.0.0/toolchain/bin/../lib/gcc/arm-none-eabi/4.8.4/../../../../arm-none-eabi/lib/armv7e-m/fpu/libg_s.a(lib_a-wbuf.o)
 .text          0x00000000        0x0 /opt/Freescale/KDS_3.0.0/toolchain/bin/../lib/gcc/arm-none-eabi/4.8.4/../../../../arm-none-eabi/lib/armv7e-m/fpu/libg_s.a(lib_a-wsetup.o)
 .data          0x00000000        0x0 /opt/Freescale/KDS_3.0.0/toolchain/bin/../lib/gcc/arm-none-eabi/4.8.4/../../../../arm-none-eabi/lib/armv7e-m/fpu/libg_s.a(lib_a-wsetup.o)
 .bss           0x00000000        0x0 /opt/Freescale/KDS_3.0.0/toolchain/bin/../lib/gcc/arm-none-eabi/4.8.4/../../../../arm-none-eabi/lib/armv7e-m/fpu/libg_s.a(lib_a-wsetup.o)
 .text          0x00000000        0x0 /opt/Freescale/KDS_3.0.0/toolchain/bin/../lib/gcc/arm-none-eabi/4.8.4/../../../../arm-none-eabi/lib/armv7e-m/fpu/libg_s.a(lib_a-abort.o)
 .data          0x00000000        0x0 /opt/Freescale/KDS_3.0.0/toolchain/bin/../lib/gcc/arm-none-eabi/4.8.4/../../../../arm-none-eabi/lib/armv7e-m/fpu/libg_s.a(lib_a-abort.o)
 .bss           0x00000000        0x0 /opt/Freescale/KDS_3.0.0/toolchain/bin/../lib/gcc/arm-none-eabi/4.8.4/../../../../arm-none-eabi/lib/armv7e-m/fpu/libg_s.a(lib_a-abort.o)
 .text          0x00000000        0x0 /opt/Freescale/KDS_3.0.0/toolchain/bin/../lib/gcc/arm-none-eabi/4.8.4/../../../../arm-none-eabi/lib/armv7e-m/fpu/libg_s.a(lib_a-fflush.o)
 .data          0x00000000        0x0 /opt/Freescale/KDS_3.0.0/toolchain/bin/../lib/gcc/arm-none-eabi/4.8.4/../../../../arm-none-eabi/lib/armv7e-m/fpu/libg_s.a(lib_a-fflush.o)
 .bss           0x00000000        0x0 /opt/Freescale/KDS_3.0.0/toolchain/bin/../lib/gcc/arm-none-eabi/4.8.4/../../../../arm-none-eabi/lib/armv7e-m/fpu/libg_s.a(lib_a-fflush.o)
 .text.fflush   0x00000000       0x24 /opt/Freescale/KDS_3.0.0/toolchain/bin/../lib/gcc/arm-none-eabi/4.8.4/../../../../arm-none-eabi/lib/armv7e-m/fpu/libg_s.a(lib_a-fflush.o)
 .text          0x00000000        0x0 /opt/Freescale/KDS_3.0.0/toolchain/bin/../lib/gcc/arm-none-eabi/4.8.4/../../../../arm-none-eabi/lib/armv7e-m/fpu/libg_s.a(lib_a-findfp.o)
 .data          0x00000000        0x0 /opt/Freescale/KDS_3.0.0/toolchain/bin/../lib/gcc/arm-none-eabi/4.8.4/../../../../arm-none-eabi/lib/armv7e-m/fpu/libg_s.a(lib_a-findfp.o)
 .bss           0x00000000        0x0 /opt/Freescale/KDS_3.0.0/toolchain/bin/../lib/gcc/arm-none-eabi/4.8.4/../../../../arm-none-eabi/lib/armv7e-m/fpu/libg_s.a(lib_a-findfp.o)
 .text.__fp_lock
                0x00000000        0x4 /opt/Freescale/KDS_3.0.0/toolchain/bin/../lib/gcc/arm-none-eabi/4.8.4/../../../../arm-none-eabi/lib/armv7e-m/fpu/libg_s.a(lib_a-findfp.o)
 .text.__fp_unlock
                0x00000000        0x4 /opt/Freescale/KDS_3.0.0/toolchain/bin/../lib/gcc/arm-none-eabi/4.8.4/../../../../arm-none-eabi/lib/armv7e-m/fpu/libg_s.a(lib_a-findfp.o)
 .text._cleanup
                0x00000000        0xc /opt/Freescale/KDS_3.0.0/toolchain/bin/../lib/gcc/arm-none-eabi/4.8.4/../../../../arm-none-eabi/lib/armv7e-m/fpu/libg_s.a(lib_a-findfp.o)
 .text.__sfp_lock_acquire
                0x00000000        0x2 /opt/Freescale/KDS_3.0.0/toolchain/bin/../lib/gcc/arm-none-eabi/4.8.4/../../../../arm-none-eabi/lib/armv7e-m/fpu/libg_s.a(lib_a-findfp.o)
 .text.__sfp_lock_release
                0x00000000        0x2 /opt/Freescale/KDS_3.0.0/toolchain/bin/../lib/gcc/arm-none-eabi/4.8.4/../../../../arm-none-eabi/lib/armv7e-m/fpu/libg_s.a(lib_a-findfp.o)
 .text.__sinit_lock_acquire
                0x00000000        0x2 /opt/Freescale/KDS_3.0.0/toolchain/bin/../lib/gcc/arm-none-eabi/4.8.4/../../../../arm-none-eabi/lib/armv7e-m/fpu/libg_s.a(lib_a-findfp.o)
 .text.__sinit_lock_release
                0x00000000        0x2 /opt/Freescale/KDS_3.0.0/toolchain/bin/../lib/gcc/arm-none-eabi/4.8.4/../../../../arm-none-eabi/lib/armv7e-m/fpu/libg_s.a(lib_a-findfp.o)
 .text.__fp_lock_all
                0x00000000       0x14 /opt/Freescale/KDS_3.0.0/toolchain/bin/../lib/gcc/arm-none-eabi/4.8.4/../../../../arm-none-eabi/lib/armv7e-m/fpu/libg_s.a(lib_a-findfp.o)
 .text.__fp_unlock_all
                0x00000000       0x14 /opt/Freescale/KDS_3.0.0/toolchain/bin/../lib/gcc/arm-none-eabi/4.8.4/../../../../arm-none-eabi/lib/armv7e-m/fpu/libg_s.a(lib_a-findfp.o)
 .text          0x00000000        0x0 /opt/Freescale/KDS_3.0.0/toolchain/bin/../lib/gcc/arm-none-eabi/4.8.4/../../../../arm-none-eabi/lib/armv7e-m/fpu/libg_s.a(lib_a-fvwrite.o)
 .data          0x00000000        0x0 /opt/Freescale/KDS_3.0.0/toolchain/bin/../lib/gcc/arm-none-eabi/4.8.4/../../../../arm-none-eabi/lib/armv7e-m/fpu/libg_s.a(lib_a-fvwrite.o)
 .bss           0x00000000        0x0 /opt/Freescale/KDS_3.0.0/toolchain/bin/../lib/gcc/arm-none-eabi/4.8.4/../../../../arm-none-eabi/lib/armv7e-m/fpu/libg_s.a(lib_a-fvwrite.o)
 .text.__sfvwrite_r
                0x00000000      0x298 /opt/Freescale/KDS_3.0.0/toolchain/bin/../lib/gcc/arm-none-eabi/4.8.4/../../../../arm-none-eabi/lib/armv7e-m/fpu/libg_s.a(lib_a-fvwrite.o)
 .ARM.attributes
                0x00000000       0x34 /opt/Freescale/KDS_3.0.0/toolchain/bin/../lib/gcc/arm-none-eabi/4.8.4/../../../../arm-none-eabi/lib/armv7e-m/fpu/libg_s.a(lib_a-fvwrite.o)
 .debug_frame   0x00000000       0x3c /opt/Freescale/KDS_3.0.0/toolchain/bin/../lib/gcc/arm-none-eabi/4.8.4/../../../../arm-none-eabi/lib/armv7e-m/fpu/libg_s.a(lib_a-fvwrite.o)
 .text          0x00000000        0x0 /opt/Freescale/KDS_3.0.0/toolchain/bin/../lib/gcc/arm-none-eabi/4.8.4/../../../../arm-none-eabi/lib/armv7e-m/fpu/libg_s.a(lib_a-fwalk.o)
 .data          0x00000000        0x0 /opt/Freescale/KDS_3.0.0/toolchain/bin/../lib/gcc/arm-none-eabi/4.8.4/../../../../arm-none-eabi/lib/armv7e-m/fpu/libg_s.a(lib_a-fwalk.o)
 .bss           0x00000000        0x0 /opt/Freescale/KDS_3.0.0/toolchain/bin/../lib/gcc/arm-none-eabi/4.8.4/../../../../arm-none-eabi/lib/armv7e-m/fpu/libg_s.a(lib_a-fwalk.o)
 .text._fwalk   0x00000000       0x38 /opt/Freescale/KDS_3.0.0/toolchain/bin/../lib/gcc/arm-none-eabi/4.8.4/../../../../arm-none-eabi/lib/armv7e-m/fpu/libg_s.a(lib_a-fwalk.o)
 .text._fwalk_reent
                0x00000000       0x3c /opt/Freescale/KDS_3.0.0/toolchain/bin/../lib/gcc/arm-none-eabi/4.8.4/../../../../arm-none-eabi/lib/armv7e-m/fpu/libg_s.a(lib_a-fwalk.o)
 .ARM.attributes
                0x00000000       0x34 /opt/Freescale/KDS_3.0.0/toolchain/bin/../lib/gcc/arm-none-eabi/4.8.4/../../../../arm-none-eabi/lib/armv7e-m/fpu/libg_s.a(lib_a-fwalk.o)
 .debug_frame   0x00000000       0x54 /opt/Freescale/KDS_3.0.0/toolchain/bin/../lib/gcc/arm-none-eabi/4.8.4/../../../../arm-none-eabi/lib/armv7e-m/fpu/libg_s.a(lib_a-fwalk.o)
 .text          0x00000000        0x0 /opt/Freescale/KDS_3.0.0/toolchain/bin/../lib/gcc/arm-none-eabi/4.8.4/../../../../arm-none-eabi/lib/armv7e-m/fpu/libg_s.a(lib_a-makebuf.o)
 .data          0x00000000        0x0 /opt/Freescale/KDS_3.0.0/toolchain/bin/../lib/gcc/arm-none-eabi/4.8.4/../../../../arm-none-eabi/lib/armv7e-m/fpu/libg_s.a(lib_a-makebuf.o)
 .bss           0x00000000        0x0 /opt/Freescale/KDS_3.0.0/toolchain/bin/../lib/gcc/arm-none-eabi/4.8.4/../../../../arm-none-eabi/lib/armv7e-m/fpu/libg_s.a(lib_a-makebuf.o)
 .text          0x00000000        0x0 /opt/Freescale/KDS_3.0.0/toolchain/bin/../lib/gcc/arm-none-eabi/4.8.4/../../../../arm-none-eabi/lib/armv7e-m/fpu/libg_s.a(lib_a-memchr-stub.o)
 .data          0x00000000        0x0 /opt/Freescale/KDS_3.0.0/toolchain/bin/../lib/gcc/arm-none-eabi/4.8.4/../../../../arm-none-eabi/lib/armv7e-m/fpu/libg_s.a(lib_a-memchr-stub.o)
 .bss           0x00000000        0x0 /opt/Freescale/KDS_3.0.0/toolchain/bin/../lib/gcc/arm-none-eabi/4.8.4/../../../../arm-none-eabi/lib/armv7e-m/fpu/libg_s.a(lib_a-memchr-stub.o)
 .text          0x00000000        0x0 /opt/Freescale/KDS_3.0.0/toolchain/bin/../lib/gcc/arm-none-eabi/4.8.4/../../../../arm-none-eabi/lib/armv7e-m/fpu/libg_s.a(lib_a-memmove.o)
 .data          0x00000000        0x0 /opt/Freescale/KDS_3.0.0/toolchain/bin/../lib/gcc/arm-none-eabi/4.8.4/../../../../arm-none-eabi/lib/armv7e-m/fpu/libg_s.a(lib_a-memmove.o)
 .bss           0x00000000        0x0 /opt/Freescale/KDS_3.0.0/toolchain/bin/../lib/gcc/arm-none-eabi/4.8.4/../../../../arm-none-eabi/lib/armv7e-m/fpu/libg_s.a(lib_a-memmove.o)
 .text.memmove  0x00000000       0x36 /opt/Freescale/KDS_3.0.0/toolchain/bin/../lib/gcc/arm-none-eabi/4.8.4/../../../../arm-none-eabi/lib/armv7e-m/fpu/libg_s.a(lib_a-memmove.o)
 .ARM.attributes
                0x00000000       0x34 /opt/Freescale/KDS_3.0.0/toolchain/bin/../lib/gcc/arm-none-eabi/4.8.4/../../../../arm-none-eabi/lib/armv7e-m/fpu/libg_s.a(lib_a-memmove.o)
 .debug_frame   0x00000000       0x2c /opt/Freescale/KDS_3.0.0/toolchain/bin/../lib/gcc/arm-none-eabi/4.8.4/../../../../arm-none-eabi/lib/armv7e-m/fpu/libg_s.a(lib_a-memmove.o)
 .text          0x00000000        0x0 /opt/Freescale/KDS_3.0.0/toolchain/bin/../lib/gcc/arm-none-eabi/4.8.4/../../../../arm-none-eabi/lib/armv7e-m/fpu/libg_s.a(lib_a-nano-reallocr.o)
 .data          0x00000000        0x0 /opt/Freescale/KDS_3.0.0/toolchain/bin/../lib/gcc/arm-none-eabi/4.8.4/../../../../arm-none-eabi/lib/armv7e-m/fpu/libg_s.a(lib_a-nano-reallocr.o)
 .bss           0x00000000        0x0 /opt/Freescale/KDS_3.0.0/toolchain/bin/../lib/gcc/arm-none-eabi/4.8.4/../../../../arm-none-eabi/lib/armv7e-m/fpu/libg_s.a(lib_a-nano-reallocr.o)
 .text._realloc_r
                0x00000000       0x4c /opt/Freescale/KDS_3.0.0/toolchain/bin/../lib/gcc/arm-none-eabi/4.8.4/../../../../arm-none-eabi/lib/armv7e-m/fpu/libg_s.a(lib_a-nano-reallocr.o)
 .ARM.attributes
                0x00000000       0x34 /opt/Freescale/KDS_3.0.0/toolchain/bin/../lib/gcc/arm-none-eabi/4.8.4/../../../../arm-none-eabi/lib/armv7e-m/fpu/libg_s.a(lib_a-nano-reallocr.o)
 .debug_frame   0x00000000       0x30 /opt/Freescale/KDS_3.0.0/toolchain/bin/../lib/gcc/arm-none-eabi/4.8.4/../../../../arm-none-eabi/lib/armv7e-m/fpu/libg_s.a(lib_a-nano-reallocr.o)
 .text          0x00000000        0x0 /opt/Freescale/KDS_3.0.0/toolchain/bin/../lib/gcc/arm-none-eabi/4.8.4/../../../../arm-none-eabi/lib/armv7e-m/fpu/libg_s.a(lib_a-reent.o)
 .data          0x00000000        0x0 /opt/Freescale/KDS_3.0.0/toolchain/bin/../lib/gcc/arm-none-eabi/4.8.4/../../../../arm-none-eabi/lib/armv7e-m/fpu/libg_s.a(lib_a-reent.o)
 .bss           0x00000000        0x0 /opt/Freescale/KDS_3.0.0/toolchain/bin/../lib/gcc/arm-none-eabi/4.8.4/../../../../arm-none-eabi/lib/armv7e-m/fpu/libg_s.a(lib_a-reent.o)
 .text.cleanup_glue
                0x00000000       0x1a /opt/Freescale/KDS_3.0.0/toolchain/bin/../lib/gcc/arm-none-eabi/4.8.4/../../../../arm-none-eabi/lib/armv7e-m/fpu/libg_s.a(lib_a-reent.o)
 .text._reclaim_reent
                0x00000000       0xbc /opt/Freescale/KDS_3.0.0/toolchain/bin/../lib/gcc/arm-none-eabi/4.8.4/../../../../arm-none-eabi/lib/armv7e-m/fpu/libg_s.a(lib_a-reent.o)
 .text          0x00000000        0x0 /opt/Freescale/KDS_3.0.0/toolchain/bin/../lib/gcc/arm-none-eabi/4.8.4/../../../../arm-none-eabi/lib/armv7e-m/fpu/libg_s.a(lib_a-signal.o)
 .data          0x00000000        0x0 /opt/Freescale/KDS_3.0.0/toolchain/bin/../lib/gcc/arm-none-eabi/4.8.4/../../../../arm-none-eabi/lib/armv7e-m/fpu/libg_s.a(lib_a-signal.o)
 .bss           0x00000000        0x0 /opt/Freescale/KDS_3.0.0/toolchain/bin/../lib/gcc/arm-none-eabi/4.8.4/../../../../arm-none-eabi/lib/armv7e-m/fpu/libg_s.a(lib_a-signal.o)
 .text._init_signal_r
                0x00000000       0x2c /opt/Freescale/KDS_3.0.0/toolchain/bin/../lib/gcc/arm-none-eabi/4.8.4/../../../../arm-none-eabi/lib/armv7e-m/fpu/libg_s.a(lib_a-signal.o)
 .text._signal_r
                0x00000000       0x30 /opt/Freescale/KDS_3.0.0/toolchain/bin/../lib/gcc/arm-none-eabi/4.8.4/../../../../arm-none-eabi/lib/armv7e-m/fpu/libg_s.a(lib_a-signal.o)
 .text.__sigtramp_r
                0x00000000       0x4a /opt/Freescale/KDS_3.0.0/toolchain/bin/../lib/gcc/arm-none-eabi/4.8.4/../../../../arm-none-eabi/lib/armv7e-m/fpu/libg_s.a(lib_a-signal.o)
 .text.signal   0x00000000       0x14 /opt/Freescale/KDS_3.0.0/toolchain/bin/../lib/gcc/arm-none-eabi/4.8.4/../../../../arm-none-eabi/lib/armv7e-m/fpu/libg_s.a(lib_a-signal.o)
 .text._init_signal
                0x00000000        0xc /opt/Freescale/KDS_3.0.0/toolchain/bin/../lib/gcc/arm-none-eabi/4.8.4/../../../../arm-none-eabi/lib/armv7e-m/fpu/libg_s.a(lib_a-signal.o)
 .text.__sigtramp
                0x00000000       0x10 /opt/Freescale/KDS_3.0.0/toolchain/bin/../lib/gcc/arm-none-eabi/4.8.4/../../../../arm-none-eabi/lib/armv7e-m/fpu/libg_s.a(lib_a-signal.o)
 .text          0x00000000        0x0 /opt/Freescale/KDS_3.0.0/toolchain/bin/../lib/gcc/arm-none-eabi/4.8.4/../../../../arm-none-eabi/lib/armv7e-m/fpu/libg_s.a(lib_a-signalr.o)
 .data          0x00000000        0x0 /opt/Freescale/KDS_3.0.0/toolchain/bin/../lib/gcc/arm-none-eabi/4.8.4/../../../../arm-none-eabi/lib/armv7e-m/fpu/libg_s.a(lib_a-signalr.o)
 .bss           0x00000000        0x0 /opt/Freescale/KDS_3.0.0/toolchain/bin/../lib/gcc/arm-none-eabi/4.8.4/../../../../arm-none-eabi/lib/armv7e-m/fpu/libg_s.a(lib_a-signalr.o)
 .text          0x00000000        0x0 /opt/Freescale/KDS_3.0.0/toolchain/bin/../lib/gcc/arm-none-eabi/4.8.4/../../../../arm-none-eabi/lib/armv7e-m/fpu/libg_s.a(lib_a-stdio.o)
 .data          0x00000000        0x0 /opt/Freescale/KDS_3.0.0/toolchain/bin/../lib/gcc/arm-none-eabi/4.8.4/../../../../arm-none-eabi/lib/armv7e-m/fpu/libg_s.a(lib_a-stdio.o)
 .bss           0x00000000        0x0 /opt/Freescale/KDS_3.0.0/toolchain/bin/../lib/gcc/arm-none-eabi/4.8.4/../../../../arm-none-eabi/lib/armv7e-m/fpu/libg_s.a(lib_a-stdio.o)
 .text.__seofread
                0x00000000        0x4 /opt/Freescale/KDS_3.0.0/toolchain/bin/../lib/gcc/arm-none-eabi/4.8.4/../../../../arm-none-eabi/lib/armv7e-m/fpu/libg_s.a(lib_a-stdio.o)
 .text          0x00000000        0x0 /opt/Freescale/KDS_3.0.0/toolchain/bin/../lib/gcc/arm-none-eabi/4.8.4/../../../../arm-none-eabi/lib/armv7e-m/fpu/libg_s.a(lib_a-writer.o)
 .data          0x00000000        0x0 /opt/Freescale/KDS_3.0.0/toolchain/bin/../lib/gcc/arm-none-eabi/4.8.4/../../../../arm-none-eabi/lib/armv7e-m/fpu/libg_s.a(lib_a-writer.o)
 .bss           0x00000000        0x0 /opt/Freescale/KDS_3.0.0/toolchain/bin/../lib/gcc/arm-none-eabi/4.8.4/../../../../arm-none-eabi/lib/armv7e-m/fpu/libg_s.a(lib_a-writer.o)
 .text          0x00000000        0x0 /opt/Freescale/KDS_3.0.0/toolchain/bin/../lib/gcc/arm-none-eabi/4.8.4/../../../../arm-none-eabi/lib/armv7e-m/fpu/libg_s.a(lib_a-closer.o)
 .data          0x00000000        0x0 /opt/Freescale/KDS_3.0.0/toolchain/bin/../lib/gcc/arm-none-eabi/4.8.4/../../../../arm-none-eabi/lib/armv7e-m/fpu/libg_s.a(lib_a-closer.o)
 .bss           0x00000000        0x0 /opt/Freescale/KDS_3.0.0/toolchain/bin/../lib/gcc/arm-none-eabi/4.8.4/../../../../arm-none-eabi/lib/armv7e-m/fpu/libg_s.a(lib_a-closer.o)
 .text          0x00000000        0x0 /opt/Freescale/KDS_3.0.0/toolchain/bin/../lib/gcc/arm-none-eabi/4.8.4/../../../../arm-none-eabi/lib/armv7e-m/fpu/libg_s.a(lib_a-fstatr.o)
 .data          0x00000000        0x0 /opt/Freescale/KDS_3.0.0/toolchain/bin/../lib/gcc/arm-none-eabi/4.8.4/../../../../arm-none-eabi/lib/armv7e-m/fpu/libg_s.a(lib_a-fstatr.o)
 .bss           0x00000000        0x0 /opt/Freescale/KDS_3.0.0/toolchain/bin/../lib/gcc/arm-none-eabi/4.8.4/../../../../arm-none-eabi/lib/armv7e-m/fpu/libg_s.a(lib_a-fstatr.o)
 .text          0x00000000        0x0 /opt/Freescale/KDS_3.0.0/toolchain/bin/../lib/gcc/arm-none-eabi/4.8.4/../../../../arm-none-eabi/lib/armv7e-m/fpu/libg_s.a(lib_a-isattyr.o)
 .data          0x00000000        0x0 /opt/Freescale/KDS_3.0.0/toolchain/bin/../lib/gcc/arm-none-eabi/4.8.4/../../../../arm-none-eabi/lib/armv7e-m/fpu/libg_s.a(lib_a-isattyr.o)
 .bss           0x00000000        0x0 /opt/Freescale/KDS_3.0.0/toolchain/bin/../lib/gcc/arm-none-eabi/4.8.4/../../../../arm-none-eabi/lib/armv7e-m/fpu/libg_s.a(lib_a-isattyr.o)
 .text          0x00000000        0x0 /opt/Freescale/KDS_3.0.0/toolchain/bin/../lib/gcc/arm-none-eabi/4.8.4/../../../../arm-none-eabi/lib/armv7e-m/fpu/libg_s.a(lib_a-lseekr.o)
 .data          0x00000000        0x0 /opt/Freescale/KDS_3.0.0/toolchain/bin/../lib/gcc/arm-none-eabi/4.8.4/../../../../arm-none-eabi/lib/armv7e-m/fpu/libg_s.a(lib_a-lseekr.o)
 .bss           0x00000000        0x0 /opt/Freescale/KDS_3.0.0/toolchain/bin/../lib/gcc/arm-none-eabi/4.8.4/../../../../arm-none-eabi/lib/armv7e-m/fpu/libg_s.a(lib_a-lseekr.o)
 .text          0x00000000        0x0 /opt/Freescale/KDS_3.0.0/toolchain/bin/../lib/gcc/arm-none-eabi/4.8.4/../../../../arm-none-eabi/lib/armv7e-m/fpu/libg_s.a(lib_a-nano-msizer.o)
 .data          0x00000000        0x0 /opt/Freescale/KDS_3.0.0/toolchain/bin/../lib/gcc/arm-none-eabi/4.8.4/../../../../arm-none-eabi/lib/armv7e-m/fpu/libg_s.a(lib_a-nano-msizer.o)
 .bss           0x00000000        0x0 /opt/Freescale/KDS_3.0.0/toolchain/bin/../lib/gcc/arm-none-eabi/4.8.4/../../../../arm-none-eabi/lib/armv7e-m/fpu/libg_s.a(lib_a-nano-msizer.o)
 .text._malloc_usable_size_r
                0x00000000       0x12 /opt/Freescale/KDS_3.0.0/toolchain/bin/../lib/gcc/arm-none-eabi/4.8.4/../../../../arm-none-eabi/lib/armv7e-m/fpu/libg_s.a(lib_a-nano-msizer.o)
 .ARM.attributes
                0x00000000       0x34 /opt/Freescale/KDS_3.0.0/toolchain/bin/../lib/gcc/arm-none-eabi/4.8.4/../../../../arm-none-eabi/lib/armv7e-m/fpu/libg_s.a(lib_a-nano-msizer.o)
 .debug_frame   0x00000000       0x20 /opt/Freescale/KDS_3.0.0/toolchain/bin/../lib/gcc/arm-none-eabi/4.8.4/../../../../arm-none-eabi/lib/armv7e-m/fpu/libg_s.a(lib_a-nano-msizer.o)
 .text          0x00000000        0x0 /opt/Freescale/KDS_3.0.0/toolchain/bin/../lib/gcc/arm-none-eabi/4.8.4/../../../../arm-none-eabi/lib/armv7e-m/fpu/libg_s.a(lib_a-readr.o)
 .data          0x00000000        0x0 /opt/Freescale/KDS_3.0.0/toolchain/bin/../lib/gcc/arm-none-eabi/4.8.4/../../../../arm-none-eabi/lib/armv7e-m/fpu/libg_s.a(lib_a-readr.o)
 .bss           0x00000000        0x0 /opt/Freescale/KDS_3.0.0/toolchain/bin/../lib/gcc/arm-none-eabi/4.8.4/../../../../arm-none-eabi/lib/armv7e-m/fpu/libg_s.a(lib_a-readr.o)
 .text          0x00000000        0x0 /opt/Freescale/KDS_3.0.0/toolchain/bin/../lib/gcc/arm-none-eabi/4.8.4/../../../../arm-none-eabi/lib/armv7e-m/fpu/libnosys.a(close.o)
 .data          0x00000000        0x0 /opt/Freescale/KDS_3.0.0/toolchain/bin/../lib/gcc/arm-none-eabi/4.8.4/../../../../arm-none-eabi/lib/armv7e-m/fpu/libnosys.a(close.o)
 .bss           0x00000000        0x0 /opt/Freescale/KDS_3.0.0/toolchain/bin/../lib/gcc/arm-none-eabi/4.8.4/../../../../arm-none-eabi/lib/armv7e-m/fpu/libnosys.a(close.o)
 .text          0x00000000        0x0 /opt/Freescale/KDS_3.0.0/toolchain/bin/../lib/gcc/arm-none-eabi/4.8.4/../../../../arm-none-eabi/lib/armv7e-m/fpu/libnosys.a(fstat.o)
 .data          0x00000000        0x0 /opt/Freescale/KDS_3.0.0/toolchain/bin/../lib/gcc/arm-none-eabi/4.8.4/../../../../arm-none-eabi/lib/armv7e-m/fpu/libnosys.a(fstat.o)
 .bss           0x00000000        0x0 /opt/Freescale/KDS_3.0.0/toolchain/bin/../lib/gcc/arm-none-eabi/4.8.4/../../../../arm-none-eabi/lib/armv7e-m/fpu/libnosys.a(fstat.o)
 .text          0x00000000        0x0 /opt/Freescale/KDS_3.0.0/toolchain/bin/../lib/gcc/arm-none-eabi/4.8.4/../../../../arm-none-eabi/lib/armv7e-m/fpu/libnosys.a(getpid.o)
 .data          0x00000000        0x0 /opt/Freescale/KDS_3.0.0/toolchain/bin/../lib/gcc/arm-none-eabi/4.8.4/../../../../arm-none-eabi/lib/armv7e-m/fpu/libnosys.a(getpid.o)
 .bss           0x00000000        0x0 /opt/Freescale/KDS_3.0.0/toolchain/bin/../lib/gcc/arm-none-eabi/4.8.4/../../../../arm-none-eabi/lib/armv7e-m/fpu/libnosys.a(getpid.o)
 .text          0x00000000        0x0 /opt/Freescale/KDS_3.0.0/toolchain/bin/../lib/gcc/arm-none-eabi/4.8.4/../../../../arm-none-eabi/lib/armv7e-m/fpu/libnosys.a(isatty.o)
 .data          0x00000000        0x0 /opt/Freescale/KDS_3.0.0/toolchain/bin/../lib/gcc/arm-none-eabi/4.8.4/../../../../arm-none-eabi/lib/armv7e-m/fpu/libnosys.a(isatty.o)
 .bss           0x00000000        0x0 /opt/Freescale/KDS_3.0.0/toolchain/bin/../lib/gcc/arm-none-eabi/4.8.4/../../../../arm-none-eabi/lib/armv7e-m/fpu/libnosys.a(isatty.o)
 .text          0x00000000        0x0 /opt/Freescale/KDS_3.0.0/toolchain/bin/../lib/gcc/arm-none-eabi/4.8.4/../../../../arm-none-eabi/lib/armv7e-m/fpu/libnosys.a(kill.o)
 .data          0x00000000        0x0 /opt/Freescale/KDS_3.0.0/toolchain/bin/../lib/gcc/arm-none-eabi/4.8.4/../../../../arm-none-eabi/lib/armv7e-m/fpu/libnosys.a(kill.o)
 .bss           0x00000000        0x0 /opt/Freescale/KDS_3.0.0/toolchain/bin/../lib/gcc/arm-none-eabi/4.8.4/../../../../arm-none-eabi/lib/armv7e-m/fpu/libnosys.a(kill.o)
 .text          0x00000000        0x0 /opt/Freescale/KDS_3.0.0/toolchain/bin/../lib/gcc/arm-none-eabi/4.8.4/../../../../arm-none-eabi/lib/armv7e-m/fpu/libnosys.a(lseek.o)
 .data          0x00000000        0x0 /opt/Freescale/KDS_3.0.0/toolchain/bin/../lib/gcc/arm-none-eabi/4.8.4/../../../../arm-none-eabi/lib/armv7e-m/fpu/libnosys.a(lseek.o)
 .bss           0x00000000        0x0 /opt/Freescale/KDS_3.0.0/toolchain/bin/../lib/gcc/arm-none-eabi/4.8.4/../../../../arm-none-eabi/lib/armv7e-m/fpu/libnosys.a(lseek.o)
 .text          0x00000000        0x0 /opt/Freescale/KDS_3.0.0/toolchain/bin/../lib/gcc/arm-none-eabi/4.8.4/../../../../arm-none-eabi/lib/armv7e-m/fpu/libnosys.a(_exit.o)
 .data          0x00000000        0x0 /opt/Freescale/KDS_3.0.0/toolchain/bin/../lib/gcc/arm-none-eabi/4.8.4/../../../../arm-none-eabi/lib/armv7e-m/fpu/libnosys.a(_exit.o)
 .bss           0x00000000        0x0 /opt/Freescale/KDS_3.0.0/toolchain/bin/../lib/gcc/arm-none-eabi/4.8.4/../../../../arm-none-eabi/lib/armv7e-m/fpu/libnosys.a(_exit.o)
 .text          0x00000000        0x0 /opt/Freescale/KDS_3.0.0/toolchain/bin/../lib/gcc/arm-none-eabi/4.8.4/armv7e-m/fpu/crtend.o
 .data          0x00000000        0x0 /opt/Freescale/KDS_3.0.0/toolchain/bin/../lib/gcc/arm-none-eabi/4.8.4/armv7e-m/fpu/crtend.o
 .bss           0x00000000        0x0 /opt/Freescale/KDS_3.0.0/toolchain/bin/../lib/gcc/arm-none-eabi/4.8.4/armv7e-m/fpu/crtend.o
 .eh_frame      0x00000000        0x4 /opt/Freescale/KDS_3.0.0/toolchain/bin/../lib/gcc/arm-none-eabi/4.8.4/armv7e-m/fpu/crtend.o
 .text          0x00000000        0x0 /opt/Freescale/KDS_3.0.0/toolchain/bin/../lib/gcc/arm-none-eabi/4.8.4/armv7e-m/fpu/crtn.o
 .data          0x00000000        0x0 /opt/Freescale/KDS_3.0.0/toolchain/bin/../lib/gcc/arm-none-eabi/4.8.4/armv7e-m/fpu/crtn.o
 .bss           0x00000000        0x0 /opt/Freescale/KDS_3.0.0/toolchain/bin/../lib/gcc/arm-none-eabi/4.8.4/armv7e-m/fpu/crtn.o

Memory Configuration

Name             Origin             Length             Attributes
m_interrupts     0x00000000         0x00000400         xr
m_flash_config   0x00000400         0x00000010         xr
m_text           0x00000410         0x000ffbf0         xr
m_data           0x1fff0000         0x00010000         rw
m_data_2         0x20000000         0x00030000         rw
*default*        0x00000000         0xffffffff

Linker script and memory map

LOAD /opt/Freescale/KDS_3.0.0/toolchain/bin/../lib/gcc/arm-none-eabi/4.8.4/armv7e-m/fpu/crti.o
LOAD /opt/Freescale/KDS_3.0.0/toolchain/bin/../lib/gcc/arm-none-eabi/4.8.4/armv7e-m/fpu/crtbegin.o
LOAD /opt/Freescale/KDS_3.0.0/toolchain/bin/../lib/gcc/arm-none-eabi/4.8.4/../../../../arm-none-eabi/lib/armv7e-m/fpu/crt0.o
                0x00000001                __ram_vector_table__ = 0x1
                0x00001000                __stack_size__ = 0x1000
                0x00000400                __heap_size__ = 0x400
START GROUP
LOAD ./utilities/fsl_debug_console.o
LOAD ./utilities/fsl_misc_utilities.o
LOAD ./utilities/print_scan.o
LOAD ./startup/startup.o
LOAD ./startup/startup_MK64F12.o
LOAD ./startup/system_MK64F12.o
LOAD ./sources/keyboard.o
LOAD ./sources/usb_descriptor.o
LOAD ./board/board.o
LOAD ./board/gpio_pins.o
LOAD ./board/hardware_init.o
LOAD ./board/pin_mux.o
LOAD /opt/Freescale/KSDK_1.2.0/examples/frdmk64f/demo_apps/usb/device/hid/hhkb/bm/kds/../../../../../../../../../usb/usb_core/device/build/kds/usbd_sdk_frdmk64f_bm/debug/libusbd_bm.a
LOAD /opt/Freescale/KSDK_1.2.0/examples/frdmk64f/demo_apps/usb/device/hid/hhkb/bm/kds/../../../../../../../../../lib/ksdk_platform_lib/kds/K64F12/debug/libksdk_platform.a
LOAD /opt/Freescale/KDS_3.0.0/toolchain/bin/../lib/gcc/arm-none-eabi/4.8.4/../../../../arm-none-eabi/lib/armv7e-m/fpu/libm.a
LOAD /opt/Freescale/KDS_3.0.0/toolchain/bin/../lib/gcc/arm-none-eabi/4.8.4/../../../../arm-none-eabi/lib/armv7e-m/fpu/libg_s.a
LOAD /opt/Freescale/KDS_3.0.0/toolchain/bin/../lib/gcc/arm-none-eabi/4.8.4/armv7e-m/fpu/libgcc.a
LOAD /opt/Freescale/KDS_3.0.0/toolchain/bin/../lib/gcc/arm-none-eabi/4.8.4/../../../../arm-none-eabi/lib/armv7e-m/fpu/libnosys.a
END GROUP
START GROUP
LOAD /opt/Freescale/KDS_3.0.0/toolchain/bin/../lib/gcc/arm-none-eabi/4.8.4/armv7e-m/fpu/libgcc.a
LOAD /opt/Freescale/KDS_3.0.0/toolchain/bin/../lib/gcc/arm-none-eabi/4.8.4/../../../../arm-none-eabi/lib/armv7e-m/fpu/libg_s.a
LOAD /opt/Freescale/KDS_3.0.0/toolchain/bin/../lib/gcc/arm-none-eabi/4.8.4/../../../../arm-none-eabi/lib/armv7e-m/fpu/libc_s.a
END GROUP
START GROUP
LOAD /opt/Freescale/KDS_3.0.0/toolchain/bin/../lib/gcc/arm-none-eabi/4.8.4/armv7e-m/fpu/libgcc.a
LOAD /opt/Freescale/KDS_3.0.0/toolchain/bin/../lib/gcc/arm-none-eabi/4.8.4/../../../../arm-none-eabi/lib/armv7e-m/fpu/libc_s.a
END GROUP
LOAD /opt/Freescale/KDS_3.0.0/toolchain/bin/../lib/gcc/arm-none-eabi/4.8.4/armv7e-m/fpu/crtend.o
LOAD /opt/Freescale/KDS_3.0.0/toolchain/bin/../lib/gcc/arm-none-eabi/4.8.4/armv7e-m/fpu/crtn.o
                0x00000400                HEAP_SIZE = DEFINED (__heap_size__)?__heap_size__:0x400
                0x00000400                STACK_SIZE = DEFINED (__stack_size__)?__stack_size__:0x400
                0x00000000                M_VECTOR_RAM_SIZE = DEFINED (__ram_vector_table__)?0x400:0x0

.interrupts     0x00000000      0x400
                0x00000000                __VECTOR_TABLE = .
                0x00000000                . = ALIGN (0x4)
 *(.isr_vector)
 .isr_vector    0x00000000      0x400 ./startup/startup_MK64F12.o
                0x00000000                __isr_vector
                0x00000400                . = ALIGN (0x4)

.flash_config   0x00000400       0x10
                0x00000400                . = ALIGN (0x4)
 *(.FlashConfig)
 .FlashConfig   0x00000400       0x10 ./startup/startup_MK64F12.o
                0x00000410                . = ALIGN (0x4)

.text           0x00000410     0x5960
                0x00000410                . = ALIGN (0x4)
 *(.text)
 .text          0x00000410       0x54 /opt/Freescale/KDS_3.0.0/toolchain/bin/../lib/gcc/arm-none-eabi/4.8.4/armv7e-m/fpu/crtbegin.o
 .text          0x00000464       0x74 /opt/Freescale/KDS_3.0.0/toolchain/bin/../lib/gcc/arm-none-eabi/4.8.4/../../../../arm-none-eabi/lib/armv7e-m/fpu/crt0.o
                0x00000464                _mainCRTStartup
                0x00000464                _start
 .text          0x000004d8       0x14 ./startup/startup_MK64F12.o
                0x000004d8                Reset_Handler
                0x000004e8                CAN0_Rx_Warning_IRQHandler
                0x000004e8                DebugMon_Handler
                0x000004e8                I2C0_IRQHandler
                0x000004e8                HardFault_Handler
                0x000004e8                SysTick_Handler
                0x000004e8                UART3_RX_TX_IRQHandler
                0x000004e8                PendSV_Handler
                0x000004e8                NMI_Handler
                0x000004e8                UART0_RX_TX_IRQHandler
                0x000004e8                I2C1_IRQHandler
                0x000004e8                DMA2_IRQHandler
                0x000004e8                ENET_Error_IRQHandler
                0x000004e8                CAN0_Tx_Warning_IRQHandler
                0x000004e8                PIT0_IRQHandler
                0x000004e8                CAN0_ORed_Message_buffer_IRQHandler
                0x000004e8                CMP2_IRQHandler
                0x000004e8                LLWU_IRQHandler
                0x000004e8                ENET_Receive_IRQHandler
                0x000004e8                ENET_1588_Timer_IRQHandler
                0x000004e8                UART2_RX_TX_IRQHandler
                0x000004e8                SWI_IRQHandler
                0x000004e8                ADC0_IRQHandler
                0x000004e8                UsageFault_Handler
                0x000004e8                I2S0_Tx_IRQHandler
                0x000004e8                CMT_IRQHandler
                0x000004e8                UART4_RX_TX_IRQHandler
                0x000004e8                SPI1_IRQHandler
                0x000004e8                DefaultISR
                0x000004e8                DMA9_IRQHandler
                0x000004e8                DMA14_IRQHandler
                0x000004e8                CMP1_IRQHandler
                0x000004e8                Reserved71_IRQHandler
                0x000004e8                PORTD_IRQHandler
                0x000004e8                PORTB_IRQHandler
                0x000004e8                UART4_ERR_IRQHandler
                0x000004e8                ADC1_IRQHandler
                0x000004e8                I2C2_IRQHandler
                0x000004e8                PIT2_IRQHandler
                0x000004e8                I2S0_Rx_IRQHandler
                0x000004e8                DMA5_IRQHandler
                0x000004e8                RTC_IRQHandler
                0x000004e8                PDB0_IRQHandler
                0x000004e8                FTM1_IRQHandler
                0x000004e8                UART5_RX_TX_IRQHandler
                0x000004e8                UART3_ERR_IRQHandler
                0x000004e8                PIT3_IRQHandler
                0x000004e8                SDHC_IRQHandler
                0x000004e8                RTC_Seconds_IRQHandler
                0x000004e8                MCG_IRQHandler
                0x000004e8                FTFE_IRQHandler
                0x000004e8                UART2_ERR_IRQHandler
                0x000004e8                DMA11_IRQHandler
                0x000004e8                UART5_ERR_IRQHandler
                0x000004e8                Read_Collision_IRQHandler
                0x000004e8                DMA7_IRQHandler
                0x000004e8                ENET_Transmit_IRQHandler
                0x000004e8                USBDCD_IRQHandler
                0x000004e8                USB0_IRQHandler
                0x000004e8                SPI2_IRQHandler
                0x000004e8                WDOG_EWM_IRQHandler
                0x000004e8                MemManage_Handler
                0x000004e8                SVC_Handler
                0x000004e8                DMA13_IRQHandler
                0x000004e8                DMA3_IRQHandler
                0x000004e8                UART0_LON_IRQHandler
                0x000004e8                RNG_IRQHandler
                0x000004e8                DMA0_IRQHandler
                0x000004e8                DMA15_IRQHandler
                0x000004e8                DAC0_IRQHandler
                0x000004e8                CAN0_Error_IRQHandler
                0x000004e8                DMA4_IRQHandler
                0x000004e8                PIT1_IRQHandler
                0x000004e8                UART0_ERR_IRQHandler
                0x000004e8                DMA_Error_IRQHandler
                0x000004e8                LVD_LVW_IRQHandler
                0x000004e8                SPI0_IRQHandler
                0x000004e8                FTM0_IRQHandler
                0x000004e8                PORTA_IRQHandler
                0x000004e8                DAC1_IRQHandler
                0x000004e8                MCM_IRQHandler
                0x000004e8                DMA12_IRQHandler
                0x000004e8                CAN0_Bus_Off_IRQHandler
                0x000004e8                FTM3_IRQHandler
                0x000004e8                PORTE_IRQHandler
                0x000004e8                FTM2_IRQHandler
                0x000004e8                BusFault_Handler
                0x000004e8                DMA8_IRQHandler
                0x000004e8                DMA10_IRQHandler
                0x000004e8                CAN0_Wake_Up_IRQHandler
                0x000004e8                UART1_ERR_IRQHandler
                0x000004e8                UART1_RX_TX_IRQHandler
                0x000004e8                CMP0_IRQHandler
                0x000004e8                PORTC_IRQHandler
                0x000004e8                DMA6_IRQHandler
                0x000004e8                DMA1_IRQHandler
 *(.text*)
 .text.debug_putc
                0x000004ec       0x28 ./utilities/fsl_debug_console.o
 .text.DbgConsole_Init
                0x00000514       0xa8 ./utilities/fsl_debug_console.o
                0x00000514                DbgConsole_Init
 .text._write   0x000005bc       0x28 ./utilities/fsl_debug_console.o
                0x000005bc                _write
 .text._read    0x000005e4       0x20 ./utilities/fsl_debug_console.o
                0x000005e4                _read
 .text.debug_printf
                0x00000604       0x38 ./utilities/fsl_debug_console.o
                0x00000604                debug_printf
 .text._sbrk    0x0000063c       0x38 ./utilities/fsl_misc_utilities.o
                0x0000063c                _sbrk
 .text.mknumstr
                0x00000674       0x6c ./utilities/print_scan.o
 .text.fput_pad.isra.0
                0x000006e0       0x2a ./utilities/print_scan.o
 *fill*         0x0000070a        0x2 
 .text._doprint
                0x0000070c      0x3e8 ./utilities/print_scan.o
                0x0000070c                _doprint
 .text.init_data_bss
                0x00000af4       0x7c ./startup/startup.o
                0x00000af4                init_data_bss
 .text.SystemInit
                0x00000b70       0x2c ./startup/system_MK64F12.o
                0x00000b70                SystemInit
 .text.updateKeys
                0x00000b9c       0xbe ./sources/keyboard.o
                0x00000b9c                updateKeys
 *fill*         0x00000c5a        0x2 
 .text.lptmr_isr_callback
                0x00000c5c      0x1a8 ./sources/keyboard.o
                0x00000c5c                lptmr_isr_callback
 .text.LPTMR0_IRQHandler
                0x00000e04        0x6 ./sources/keyboard.o
                0x00000e04                LPTMR0_IRQHandler
 *fill*         0x00000e0a        0x2 
 .text.KeyBoard_Events_Process
                0x00000e0c       0x14 ./sources/keyboard.o
                0x00000e0c                KeyBoard_Events_Process
 .text.USB_App_Device_Callback
                0x00000e20       0x44 ./sources/keyboard.o
                0x00000e20                USB_App_Device_Callback
 .text.USB_App_Class_Callback
                0x00000e64       0x6c ./sources/keyboard.o
                0x00000e64                USB_App_Class_Callback
 .text.APP_init
                0x00000ed0      0x118 ./sources/keyboard.o
                0x00000ed0                APP_init
 .text.startup.main
                0x00000fe8       0x1a ./sources/keyboard.o
                0x00000fe8                main
 *fill*         0x00001002        0x2 
 .text.USB_Desc_Get_Interface
                0x00001004       0x14 ./sources/usb_descriptor.o
                0x00001004                USB_Desc_Get_Interface
 .text.USB_Desc_Set_Interface
                0x00001018       0x14 ./sources/usb_descriptor.o
                0x00001018                USB_Desc_Set_Interface
 .text.USB_Set_Configuration
                0x0000102c        0x4 ./sources/usb_descriptor.o
                0x0000102c                USB_Set_Configuration
 .text.USB_Desc_Get_Descriptor
                0x00001030       0xa0 ./sources/usb_descriptor.o
                0x00001030                USB_Desc_Get_Descriptor
 .text.USB_Desc_Get_Entity
                0x000010d0       0x28 ./sources/usb_descriptor.o
                0x000010d0                USB_Desc_Get_Entity
 .text.USB_Desc_Set_Speed
                0x000010f8       0x40 ./sources/usb_descriptor.o
                0x000010f8                USB_Desc_Set_Speed
 .text.BOARD_InitOsc0
                0x00001138       0x28 ./board/board.o
                0x00001138                BOARD_InitOsc0
 .text.BOARD_InitRtcOsc
                0x00001160       0x20 ./board/board.o
                0x00001160                BOARD_InitRtcOsc
 .text.BOARD_ClockInit
                0x00001180       0x34 ./board/board.o
                0x00001180                BOARD_ClockInit
 .text.dbg_uart_init
                0x000011b4       0x18 ./board/board.o
                0x000011b4                dbg_uart_init
 .text.hardware_init
                0x000011cc       0x1c ./board/hardware_init.o
                0x000011cc                hardware_init
 .text.configure_uart_pins
                0x000011e8       0x58 ./board/pin_mux.o
                0x000011e8                configure_uart_pins
 .text.USB_Service_Hid_IN
                0x00001240       0x1c /opt/Freescale/KSDK_1.2.0/examples/frdmk64f/demo_apps/usb/device/hid/hhkb/bm/kds/../../../../../../../../../usb/usb_core/device/build/kds/usbd_sdk_frdmk64f_bm/debug/libusbd_bm.a(usb_hid.o)
                0x00001240                USB_Service_Hid_IN
 .text.USB_Service_Hid_OUT
                0x0000125c       0x1c /opt/Freescale/KSDK_1.2.0/examples/frdmk64f/demo_apps/usb/device/hid/hhkb/bm/kds/../../../../../../../../../usb/usb_core/device/build/kds/usbd_sdk_frdmk64f_bm/debug/libusbd_bm.a(usb_hid.o)
                0x0000125c                USB_Service_Hid_OUT
 .text.USB_Class_Hid_Event
                0x00001278      0x14c /opt/Freescale/KSDK_1.2.0/examples/frdmk64f/demo_apps/usb/device/hid/hhkb/bm/kds/../../../../../../../../../usb/usb_core/device/build/kds/usbd_sdk_frdmk64f_bm/debug/libusbd_bm.a(usb_hid.o)
                0x00001278                USB_Class_Hid_Event
 .text.USB_HID_Requests
                0x000013c4       0x40 /opt/Freescale/KSDK_1.2.0/examples/frdmk64f/demo_apps/usb/device/hid/hhkb/bm/kds/../../../../../../../../../usb/usb_core/device/build/kds/usbd_sdk_frdmk64f_bm/debug/libusbd_bm.a(usb_hid.o)
                0x000013c4                USB_HID_Requests
 .text.USB_Hid_Free_Handle
                0x00001404       0x1c /opt/Freescale/KSDK_1.2.0/examples/frdmk64f/demo_apps/usb/device/hid/hhkb/bm/kds/../../../../../../../../../usb/usb_core/device/build/kds/usbd_sdk_frdmk64f_bm/debug/libusbd_bm.a(usb_hid.o)
 .text.USB_Class_HID_Init
                0x00001420       0x94 /opt/Freescale/KSDK_1.2.0/examples/frdmk64f/demo_apps/usb/device/hid/hhkb/bm/kds/../../../../../../../../../usb/usb_core/device/build/kds/usbd_sdk_frdmk64f_bm/debug/libusbd_bm.a(usb_hid.o)
                0x00001420                USB_Class_HID_Init
 .text.USB_Class_HID_Send_Data
                0x000014b4        0xc /opt/Freescale/KSDK_1.2.0/examples/frdmk64f/demo_apps/usb/device/hid/hhkb/bm/kds/../../../../../../../../../usb/usb_core/device/build/kds/usbd_sdk_frdmk64f_bm/debug/libusbd_bm.a(usb_hid.o)
                0x000014b4                USB_Class_HID_Send_Data
 .text.USB_Class_HID_Get_Speed
                0x000014c0       0x10 /opt/Freescale/KSDK_1.2.0/examples/frdmk64f/demo_apps/usb/device/hid/hhkb/bm/kds/../../../../../../../../../usb/usb_core/device/build/kds/usbd_sdk_frdmk64f_bm/debug/libusbd_bm.a(usb_hid.o)
                0x000014c0                USB_Class_HID_Get_Speed
 .text.USB_Class_Init
                0x000014d0       0x3c /opt/Freescale/KSDK_1.2.0/examples/frdmk64f/demo_apps/usb/device/hid/hhkb/bm/kds/../../../../../../../../../usb/usb_core/device/build/kds/usbd_sdk_frdmk64f_bm/debug/libusbd_bm.a(usb_class.o)
                0x000014d0                USB_Class_Init
 .text.USB_Class_Send_Data
                0x0000150c        0xc /opt/Freescale/KSDK_1.2.0/examples/frdmk64f/demo_apps/usb/device/hid/hhkb/bm/kds/../../../../../../../../../usb/usb_core/device/build/kds/usbd_sdk_frdmk64f_bm/debug/libusbd_bm.a(usb_class.o)
                0x0000150c                USB_Class_Send_Data
 .text.USB_Class_Get_Status
                0x00001518        0xc /opt/Freescale/KSDK_1.2.0/examples/frdmk64f/demo_apps/usb/device/hid/hhkb/bm/kds/../../../../../../../../../usb/usb_core/device/build/kds/usbd_sdk_frdmk64f_bm/debug/libusbd_bm.a(usb_class.o)
                0x00001518                USB_Class_Get_Status
 .text._usb_device_call_service_internal
                0x00001524       0x44 /opt/Freescale/KSDK_1.2.0/examples/frdmk64f/demo_apps/usb/device/hid/hhkb/bm/kds/../../../../../../../../../usb/usb_core/device/build/kds/usbd_sdk_frdmk64f_bm/debug/libusbd_bm.a(usb_dev.o)
                0x00001524                _usb_device_call_service_internal
 .text._usb_device_call_service
                0x00001568       0x1c /opt/Freescale/KSDK_1.2.0/examples/frdmk64f/demo_apps/usb/device/hid/hhkb/bm/kds/../../../../../../../../../usb/usb_core/device/build/kds/usbd_sdk_frdmk64f_bm/debug/libusbd_bm.a(usb_dev.o)
                0x00001568                _usb_device_call_service
 .text.usb_device_set_address
                0x00001584       0x1c /opt/Freescale/KSDK_1.2.0/examples/frdmk64f/demo_apps/usb/device/hid/hhkb/bm/kds/../../../../../../../../../usb/usb_core/device/build/kds/usbd_sdk_frdmk64f_bm/debug/libusbd_bm.a(usb_dev.o)
                0x00001584                usb_device_set_address
 .text.usb_device_get_status
                0x000015a0       0x54 /opt/Freescale/KSDK_1.2.0/examples/frdmk64f/demo_apps/usb/device/hid/hhkb/bm/kds/../../../../../../../../../usb/usb_core/device/build/kds/usbd_sdk_frdmk64f_bm/debug/libusbd_bm.a(usb_dev.o)
                0x000015a0                usb_device_get_status
 .text.usb_device_set_status
                0x000015f4       0x40 /opt/Freescale/KSDK_1.2.0/examples/frdmk64f/demo_apps/usb/device/hid/hhkb/bm/kds/../../../../../../../../../usb/usb_core/device/build/kds/usbd_sdk_frdmk64f_bm/debug/libusbd_bm.a(usb_dev.o)
                0x000015f4                usb_device_set_status
 .text.usb_device_init
                0x00001634       0xf0 /opt/Freescale/KSDK_1.2.0/examples/frdmk64f/demo_apps/usb/device/hid/hhkb/bm/kds/../../../../../../../../../usb/usb_core/device/build/kds/usbd_sdk_frdmk64f_bm/debug/libusbd_bm.a(usb_dev.o)
                0x00001634                usb_device_init
 .text.usb_device_postinit
                0x00001724       0x10 /opt/Freescale/KSDK_1.2.0/examples/frdmk64f/demo_apps/usb/device/hid/hhkb/bm/kds/../../../../../../../../../usb/usb_core/device/build/kds/usbd_sdk_frdmk64f_bm/debug/libusbd_bm.a(usb_dev.o)
                0x00001724                usb_device_postinit
 .text.usb_device_init_endpoint
                0x00001734       0x50 /opt/Freescale/KSDK_1.2.0/examples/frdmk64f/demo_apps/usb/device/hid/hhkb/bm/kds/../../../../../../../../../usb/usb_core/device/build/kds/usbd_sdk_frdmk64f_bm/debug/libusbd_bm.a(usb_dev.o)
                0x00001734                usb_device_init_endpoint
 .text.usb_device_register_service
                0x00001784       0x72 /opt/Freescale/KSDK_1.2.0/examples/frdmk64f/demo_apps/usb/device/hid/hhkb/bm/kds/../../../../../../../../../usb/usb_core/device/build/kds/usbd_sdk_frdmk64f_bm/debug/libusbd_bm.a(usb_dev.o)
                0x00001784                usb_device_register_service
 *fill*         0x000017f6        0x2 
 .text.usb_device_recv_data
                0x000017f8       0x8c /opt/Freescale/KSDK_1.2.0/examples/frdmk64f/demo_apps/usb/device/hid/hhkb/bm/kds/../../../../../../../../../usb/usb_core/device/build/kds/usbd_sdk_frdmk64f_bm/debug/libusbd_bm.a(usb_dev.o)
                0x000017f8                usb_device_recv_data
 .text.usb_device_send_data
                0x00001884       0xa0 /opt/Freescale/KSDK_1.2.0/examples/frdmk64f/demo_apps/usb/device/hid/hhkb/bm/kds/../../../../../../../../../usb/usb_core/device/build/kds/usbd_sdk_frdmk64f_bm/debug/libusbd_bm.a(usb_dev.o)
                0x00001884                usb_device_send_data
 .text.usb_device_unstall_endpoint
                0x00001924       0x48 /opt/Freescale/KSDK_1.2.0/examples/frdmk64f/demo_apps/usb/device/hid/hhkb/bm/kds/../../../../../../../../../usb/usb_core/device/build/kds/usbd_sdk_frdmk64f_bm/debug/libusbd_bm.a(usb_dev.o)
                0x00001924                usb_device_unstall_endpoint
 .text.usb_device_stall_endpoint
                0x0000196c       0x28 /opt/Freescale/KSDK_1.2.0/examples/frdmk64f/demo_apps/usb/device/hid/hhkb/bm/kds/../../../../../../../../../usb/usb_core/device/build/kds/usbd_sdk_frdmk64f_bm/debug/libusbd_bm.a(usb_dev.o)
                0x0000196c                usb_device_stall_endpoint
 .text.usb_device_register_application_notify
                0x00001994       0x1c /opt/Freescale/KSDK_1.2.0/examples/frdmk64f/demo_apps/usb/device/hid/hhkb/bm/kds/../../../../../../../../../usb/usb_core/device/build/kds/usbd_sdk_frdmk64f_bm/debug/libusbd_bm.a(usb_dev.o)
                0x00001994                usb_device_register_application_notify
 .text.usb_device_register_vendor_class_request_notify
                0x000019b0       0x1c /opt/Freescale/KSDK_1.2.0/examples/frdmk64f/demo_apps/usb/device/hid/hhkb/bm/kds/../../../../../../../../../usb/usb_core/device/build/kds/usbd_sdk_frdmk64f_bm/debug/libusbd_bm.a(usb_dev.o)
                0x000019b0                usb_device_register_vendor_class_request_notify
 .text.usb_device_register_desc_request_notify
                0x000019cc       0x1c /opt/Freescale/KSDK_1.2.0/examples/frdmk64f/demo_apps/usb/device/hid/hhkb/bm/kds/../../../../../../../../../usb/usb_core/device/build/kds/usbd_sdk_frdmk64f_bm/debug/libusbd_bm.a(usb_dev.o)
                0x000019cc                usb_device_register_desc_request_notify
 .text.usb_device_reset
                0x000019e8       0x14 /opt/Freescale/KSDK_1.2.0/examples/frdmk64f/demo_apps/usb/device/hid/hhkb/bm/kds/../../../../../../../../../usb/usb_core/device/build/kds/usbd_sdk_frdmk64f_bm/debug/libusbd_bm.a(usb_dev.o)
                0x000019e8                usb_device_reset
 .text.USB_Strd_Req_Get_Config
                0x000019fc        0xc /opt/Freescale/KSDK_1.2.0/examples/frdmk64f/demo_apps/usb/device/hid/hhkb/bm/kds/../../../../../../../../../usb/usb_core/device/build/kds/usbd_sdk_frdmk64f_bm/debug/libusbd_bm.a(usb_framework.o)
 .text.USB_Strd_Req_Get_Interface
                0x00001a08       0x20 /opt/Freescale/KSDK_1.2.0/examples/frdmk64f/demo_apps/usb/device/hid/hhkb/bm/kds/../../../../../../../../../usb/usb_core/device/build/kds/usbd_sdk_frdmk64f_bm/debug/libusbd_bm.a(usb_framework.o)
 .text.USB_Strd_Req_Get_Descriptor
                0x00001a28       0x22 /opt/Freescale/KSDK_1.2.0/examples/frdmk64f/demo_apps/usb/device/hid/hhkb/bm/kds/../../../../../../../../../usb/usb_core/device/build/kds/usbd_sdk_frdmk64f_bm/debug/libusbd_bm.a(usb_framework.o)
 .text.USB_Strd_Req_Sync_Frame
                0x00001a4a       0x1a /opt/Freescale/KSDK_1.2.0/examples/frdmk64f/demo_apps/usb/device/hid/hhkb/bm/kds/../../../../../../../../../usb/usb_core/device/build/kds/usbd_sdk_frdmk64f_bm/debug/libusbd_bm.a(usb_framework.o)
 .text.USB_Strd_Req_Get_Status
                0x00001a64       0x56 /opt/Freescale/KSDK_1.2.0/examples/frdmk64f/demo_apps/usb/device/hid/hhkb/bm/kds/../../../../../../../../../usb/usb_core/device/build/kds/usbd_sdk_frdmk64f_bm/debug/libusbd_bm.a(usb_framework.o)
 .text.USB_Strd_Req_Set_Config
                0x00001aba       0x58 /opt/Freescale/KSDK_1.2.0/examples/frdmk64f/demo_apps/usb/device/hid/hhkb/bm/kds/../../../../../../../../../usb/usb_core/device/build/kds/usbd_sdk_frdmk64f_bm/debug/libusbd_bm.a(usb_framework.o)
 .text.USB_Strd_Req_Set_Address
                0x00001b12       0x1c /opt/Freescale/KSDK_1.2.0/examples/frdmk64f/demo_apps/usb/device/hid/hhkb/bm/kds/../../../../../../../../../usb/usb_core/device/build/kds/usbd_sdk_frdmk64f_bm/debug/libusbd_bm.a(usb_framework.o)
 .text.USB_Strd_Req_Feature
                0x00001b2e       0x92 /opt/Freescale/KSDK_1.2.0/examples/frdmk64f/demo_apps/usb/device/hid/hhkb/bm/kds/../../../../../../../../../usb/usb_core/device/build/kds/usbd_sdk_frdmk64f_bm/debug/libusbd_bm.a(usb_framework.o)
 .text.USB_Strd_Req_Set_Interface
                0x00001bc0       0x3e /opt/Freescale/KSDK_1.2.0/examples/frdmk64f/demo_apps/usb/device/hid/hhkb/bm/kds/../../../../../../../../../usb/usb_core/device/build/kds/usbd_sdk_frdmk64f_bm/debug/libusbd_bm.a(usb_framework.o)
 .text.USB_Reset_Service
                0x00001bfe       0x48 /opt/Freescale/KSDK_1.2.0/examples/frdmk64f/demo_apps/usb/device/hid/hhkb/bm/kds/../../../../../../../../../usb/usb_core/device/build/kds/usbd_sdk_frdmk64f_bm/debug/libusbd_bm.a(usb_framework.o)
                0x00001bfe                USB_Reset_Service
 .text.USB_Control_Service_Handler
                0x00001c46       0x4a /opt/Freescale/KSDK_1.2.0/examples/frdmk64f/demo_apps/usb/device/hid/hhkb/bm/kds/../../../../../../../../../usb/usb_core/device/build/kds/usbd_sdk_frdmk64f_bm/debug/libusbd_bm.a(usb_framework.o)
                0x00001c46                USB_Control_Service_Handler
 .text.USB_Control_Service
                0x00001c90      0x130 /opt/Freescale/KSDK_1.2.0/examples/frdmk64f/demo_apps/usb/device/hid/hhkb/bm/kds/../../../../../../../../../usb/usb_core/device/build/kds/usbd_sdk_frdmk64f_bm/debug/libusbd_bm.a(usb_framework.o)
                0x00001c90                USB_Control_Service
 .text.bsp_usb_dev_board_init
                0x00001dc0        0xa /opt/Freescale/KSDK_1.2.0/examples/frdmk64f/demo_apps/usb/device/hid/hhkb/bm/kds/../../../../../../../../../usb/usb_core/device/build/kds/usbd_sdk_frdmk64f_bm/debug/libusbd_bm.a(usb_dev_bsp.o)
                0x00001dc0                bsp_usb_dev_board_init
 *fill*         0x00001dca        0x2 
 .text.bsp_usb_dev_init
                0x00001dcc       0xc8 /opt/Freescale/KSDK_1.2.0/examples/frdmk64f/demo_apps/usb/device/hid/hhkb/bm/kds/../../../../../../../../../usb/usb_core/device/build/kds/usbd_sdk_frdmk64f_bm/debug/libusbd_bm.a(usb_dev_bsp.o)
                0x00001dcc                bsp_usb_dev_init
 .text.soc_get_usb_vector_number
                0x00001e94        0xa /opt/Freescale/KSDK_1.2.0/examples/frdmk64f/demo_apps/usb/device/hid/hhkb/bm/kds/../../../../../../../../../usb/usb_core/device/build/kds/usbd_sdk_frdmk64f_bm/debug/libusbd_bm.a(adapter_sdk.o)
                0x00001e94                soc_get_usb_vector_number
 *fill*         0x00001e9e        0x2 
 .text.soc_get_usb_base_address
                0x00001ea0       0x10 /opt/Freescale/KSDK_1.2.0/examples/frdmk64f/demo_apps/usb/device/hid/hhkb/bm/kds/../../../../../../../../../usb/usb_core/device/build/kds/usbd_sdk_frdmk64f_bm/debug/libusbd_bm.a(adapter_sdk.o)
                0x00001ea0                soc_get_usb_base_address
 .text.OS_Mutex_create
                0x00001eb0       0x20 /opt/Freescale/KSDK_1.2.0/examples/frdmk64f/demo_apps/usb/device/hid/hhkb/bm/kds/../../../../../../../../../usb/usb_core/device/build/kds/usbd_sdk_frdmk64f_bm/debug/libusbd_bm.a(adapter_sdk.o)
                0x00001eb0                OS_Mutex_create
 .text.OS_Mutex_destroy
                0x00001ed0       0x1c /opt/Freescale/KSDK_1.2.0/examples/frdmk64f/demo_apps/usb/device/hid/hhkb/bm/kds/../../../../../../../../../usb/usb_core/device/build/kds/usbd_sdk_frdmk64f_bm/debug/libusbd_bm.a(adapter_sdk.o)
                0x00001ed0                OS_Mutex_destroy
 .text.OS_Mutex_lock
                0x00001eec       0x14 /opt/Freescale/KSDK_1.2.0/examples/frdmk64f/demo_apps/usb/device/hid/hhkb/bm/kds/../../../../../../../../../usb/usb_core/device/build/kds/usbd_sdk_frdmk64f_bm/debug/libusbd_bm.a(adapter_sdk.o)
                0x00001eec                OS_Mutex_lock
 .text.OS_Mutex_unlock
                0x00001f00       0x10 /opt/Freescale/KSDK_1.2.0/examples/frdmk64f/demo_apps/usb/device/hid/hhkb/bm/kds/../../../../../../../../../usb/usb_core/device/build/kds/usbd_sdk_frdmk64f_bm/debug/libusbd_bm.a(adapter_sdk.o)
                0x00001f00                OS_Mutex_unlock
 .text.usb_hal_khci_clr_token_busy
                0x00001f10        0xe /opt/Freescale/KSDK_1.2.0/examples/frdmk64f/demo_apps/usb/device/hid/hhkb/bm/kds/../../../../../../../../../usb/usb_core/device/build/kds/usbd_sdk_frdmk64f_bm/debug/libusbd_bm.a(khci_dev.o)
 *fill*         0x00001f1e        0x2 
 .text._usb_khci_reset_ep_state
                0x00001f20       0xbc /opt/Freescale/KSDK_1.2.0/examples/frdmk64f/demo_apps/usb/device/hid/hhkb/bm/kds/../../../../../../../../../usb/usb_core/device/build/kds/usbd_sdk_frdmk64f_bm/debug/libusbd_bm.a(khci_dev.o)
 .text.usb_dci_khci_free_xd
                0x00001fdc       0x2e /opt/Freescale/KSDK_1.2.0/examples/frdmk64f/demo_apps/usb/device/hid/hhkb/bm/kds/../../../../../../../../../usb/usb_core/device/build/kds/usbd_sdk_frdmk64f_bm/debug/libusbd_bm.a(khci_dev.o)
                0x00001fdc                usb_dci_khci_free_xd
 .text.usb_dci_khci_get_xd
                0x0000200a       0x3a /opt/Freescale/KSDK_1.2.0/examples/frdmk64f/demo_apps/usb/device/hid/hhkb/bm/kds/../../../../../../../../../usb/usb_core/device/build/kds/usbd_sdk_frdmk64f_bm/debug/libusbd_bm.a(khci_dev.o)
                0x0000200a                usb_dci_khci_get_xd
 .text._usb_khci_next_setup_token_prep
                0x00002044       0x80 /opt/Freescale/KSDK_1.2.0/examples/frdmk64f/demo_apps/usb/device/hid/hhkb/bm/kds/../../../../../../../../../usb/usb_core/device/build/kds/usbd_sdk_frdmk64f_bm/debug/libusbd_bm.a(khci_dev.o)
 .text.usb_dci_khci_init_xd
                0x000020c4       0x3c /opt/Freescale/KSDK_1.2.0/examples/frdmk64f/demo_apps/usb/device/hid/hhkb/bm/kds/../../../../../../../../../usb/usb_core/device/build/kds/usbd_sdk_frdmk64f_bm/debug/libusbd_bm.a(khci_dev.o)
                0x000020c4                usb_dci_khci_init_xd
 .text.usb_dci_khci_preinit
                0x00002100       0x30 /opt/Freescale/KSDK_1.2.0/examples/frdmk64f/demo_apps/usb/device/hid/hhkb/bm/kds/../../../../../../../../../usb/usb_core/device/build/kds/usbd_sdk_frdmk64f_bm/debug/libusbd_bm.a(khci_dev.o)
                0x00002100                usb_dci_khci_preinit
 .text.usb_dci_khci_init
                0x00002130       0x88 /opt/Freescale/KSDK_1.2.0/examples/frdmk64f/demo_apps/usb/device/hid/hhkb/bm/kds/../../../../../../../../../usb/usb_core/device/build/kds/usbd_sdk_frdmk64f_bm/debug/libusbd_bm.a(khci_dev.o)
                0x00002130                usb_dci_khci_init
 .text.usb_dci_khci_postinit
                0x000021b8       0x4c /opt/Freescale/KSDK_1.2.0/examples/frdmk64f/demo_apps/usb/device/hid/hhkb/bm/kds/../../../../../../../../../usb/usb_core/device/build/kds/usbd_sdk_frdmk64f_bm/debug/libusbd_bm.a(khci_dev.o)
                0x000021b8                usb_dci_khci_postinit
 .text.usb_dci_khci_init_endpoint
                0x00002204       0xcc /opt/Freescale/KSDK_1.2.0/examples/frdmk64f/demo_apps/usb/device/hid/hhkb/bm/kds/../../../../../../../../../usb/usb_core/device/build/kds/usbd_sdk_frdmk64f_bm/debug/libusbd_bm.a(khci_dev.o)
                0x00002204                usb_dci_khci_init_endpoint
 .text.usb_dci_khci_send
                0x000022d0       0xa4 /opt/Freescale/KSDK_1.2.0/examples/frdmk64f/demo_apps/usb/device/hid/hhkb/bm/kds/../../../../../../../../../usb/usb_core/device/build/kds/usbd_sdk_frdmk64f_bm/debug/libusbd_bm.a(khci_dev.o)
                0x000022d0                usb_dci_khci_send
 .text.usb_dci_khci_recv
                0x00002374      0x104 /opt/Freescale/KSDK_1.2.0/examples/frdmk64f/demo_apps/usb/device/hid/hhkb/bm/kds/../../../../../../../../../usb/usb_core/device/build/kds/usbd_sdk_frdmk64f_bm/debug/libusbd_bm.a(khci_dev.o)
                0x00002374                usb_dci_khci_recv
 .text.usb_dci_khci_unstall_endpoint
                0x00002478       0xf0 /opt/Freescale/KSDK_1.2.0/examples/frdmk64f/demo_apps/usb/device/hid/hhkb/bm/kds/../../../../../../../../../usb/usb_core/device/build/kds/usbd_sdk_frdmk64f_bm/debug/libusbd_bm.a(khci_dev.o)
                0x00002478                usb_dci_khci_unstall_endpoint
 .text.usb_dci_khci_cancel
                0x00002568       0x58 /opt/Freescale/KSDK_1.2.0/examples/frdmk64f/demo_apps/usb/device/hid/hhkb/bm/kds/../../../../../../../../../usb/usb_core/device/build/kds/usbd_sdk_frdmk64f_bm/debug/libusbd_bm.a(khci_dev.o)
                0x00002568                usb_dci_khci_cancel
 .text.usb_dci_khci_deinit_endpoint
                0x000025c0       0x58 /opt/Freescale/KSDK_1.2.0/examples/frdmk64f/demo_apps/usb/device/hid/hhkb/bm/kds/../../../../../../../../../usb/usb_core/device/build/kds/usbd_sdk_frdmk64f_bm/debug/libusbd_bm.a(khci_dev.o)
                0x000025c0                usb_dci_khci_deinit_endpoint
 .text.usb_dci_khci_stall_endpoint
                0x00002618       0x84 /opt/Freescale/KSDK_1.2.0/examples/frdmk64f/demo_apps/usb/device/hid/hhkb/bm/kds/../../../../../../../../../usb/usb_core/device/build/kds/usbd_sdk_frdmk64f_bm/debug/libusbd_bm.a(khci_dev.o)
                0x00002618                usb_dci_khci_stall_endpoint
 .text._usb_khci_isr
                0x0000269c      0x338 /opt/Freescale/KSDK_1.2.0/examples/frdmk64f/demo_apps/usb/device/hid/hhkb/bm/kds/../../../../../../../../../usb/usb_core/device/build/kds/usbd_sdk_frdmk64f_bm/debug/libusbd_bm.a(khci_dev.o)
 .text.usb_dci_khci_set_addr
                0x000029d4       0x22 /opt/Freescale/KSDK_1.2.0/examples/frdmk64f/demo_apps/usb/device/hid/hhkb/bm/kds/../../../../../../../../../usb/usb_core/device/build/kds/usbd_sdk_frdmk64f_bm/debug/libusbd_bm.a(khci_dev.o)
                0x000029d4                usb_dci_khci_set_addr
 .text.usb_dci_khci_shutdown
                0x000029f6       0x52 /opt/Freescale/KSDK_1.2.0/examples/frdmk64f/demo_apps/usb/device/hid/hhkb/bm/kds/../../../../../../../../../usb/usb_core/device/build/kds/usbd_sdk_frdmk64f_bm/debug/libusbd_bm.a(khci_dev.o)
                0x000029f6                usb_dci_khci_shutdown
 .text.usb_dci_khci_get_endpoint_status
                0x00002a48       0x14 /opt/Freescale/KSDK_1.2.0/examples/frdmk64f/demo_apps/usb/device/hid/hhkb/bm/kds/../../../../../../../../../usb/usb_core/device/build/kds/usbd_sdk_frdmk64f_bm/debug/libusbd_bm.a(khci_dev.o)
                0x00002a48                usb_dci_khci_get_endpoint_status
 .text.usb_dci_khci_set_endpoint_status
                0x00002a5c       0x34 /opt/Freescale/KSDK_1.2.0/examples/frdmk64f/demo_apps/usb/device/hid/hhkb/bm/kds/../../../../../../../../../usb/usb_core/device/build/kds/usbd_sdk_frdmk64f_bm/debug/libusbd_bm.a(khci_dev.o)
                0x00002a5c                usb_dci_khci_set_endpoint_status
 .text.usb_dci_khci_set_status
                0x00002a90       0x36 /opt/Freescale/KSDK_1.2.0/examples/frdmk64f/demo_apps/usb/device/hid/hhkb/bm/kds/../../../../../../../../../usb/usb_core/device/build/kds/usbd_sdk_frdmk64f_bm/debug/libusbd_bm.a(khci_dev.o)
                0x00002a90                usb_dci_khci_set_status
 .text.usb_dci_khci_get_status
                0x00002ac6       0x46 /opt/Freescale/KSDK_1.2.0/examples/frdmk64f/demo_apps/usb/device/hid/hhkb/bm/kds/../../../../../../../../../usb/usb_core/device/build/kds/usbd_sdk_frdmk64f_bm/debug/libusbd_bm.a(khci_dev.o)
                0x00002ac6                usb_dci_khci_get_status
 .text.usb_dci_khci_reset
                0x00002b0c       0x36 /opt/Freescale/KSDK_1.2.0/examples/frdmk64f/demo_apps/usb/device/hid/hhkb/bm/kds/../../../../../../../../../usb/usb_core/device/build/kds/usbd_sdk_frdmk64f_bm/debug/libusbd_bm.a(khci_dev.o)
                0x00002b0c                usb_dci_khci_reset
 .text.UART_HAL_SetBaudRate
                0x00002b42       0x42 /opt/Freescale/KSDK_1.2.0/examples/frdmk64f/demo_apps/usb/device/hid/hhkb/bm/kds/../../../../../../../../../lib/ksdk_platform_lib/kds/K64F12/debug/libksdk_platform.a(fsl_uart_hal.o)
                0x00002b42                UART_HAL_SetBaudRate
 .text.UART_HAL_SetParityMode
                0x00002b84       0x14 /opt/Freescale/KSDK_1.2.0/examples/frdmk64f/demo_apps/usb/device/hid/hhkb/bm/kds/../../../../../../../../../lib/ksdk_platform_lib/kds/K64F12/debug/libksdk_platform.a(fsl_uart_hal.o)
                0x00002b84                UART_HAL_SetParityMode
 .text.UART_HAL_SendDataPolling
                0x00002b98       0x22 /opt/Freescale/KSDK_1.2.0/examples/frdmk64f/demo_apps/usb/device/hid/hhkb/bm/kds/../../../../../../../../../lib/ksdk_platform_lib/kds/K64F12/debug/libksdk_platform.a(fsl_uart_hal.o)
                0x00002b98                UART_HAL_SendDataPolling
 .text.UART_HAL_ReceiveDataPolling
                0x00002bba       0x3a /opt/Freescale/KSDK_1.2.0/examples/frdmk64f/demo_apps/usb/device/hid/hhkb/bm/kds/../../../../../../../../../lib/ksdk_platform_lib/kds/K64F12/debug/libksdk_platform.a(fsl_uart_hal.o)
                0x00002bba                UART_HAL_ReceiveDataPolling
 .text.CLOCK_HAL_SetUsbfsDiv
                0x00002bf4       0x22 /opt/Freescale/KSDK_1.2.0/examples/frdmk64f/demo_apps/usb/device/hid/hhkb/bm/kds/../../../../../../../../../lib/ksdk_platform_lib/kds/K64F12/debug/libksdk_platform.a(fsl_sim_hal_MK64F12.o)
                0x00002bf4                CLOCK_HAL_SetUsbfsDiv
 .text.CLOCK_HAL_SetOutDiv
                0x00002c16       0x28 /opt/Freescale/KSDK_1.2.0/examples/frdmk64f/demo_apps/usb/device/hid/hhkb/bm/kds/../../../../../../../../../lib/ksdk_platform_lib/kds/K64F12/debug/libksdk_platform.a(fsl_sim_hal_MK64F12.o)
                0x00002c16                CLOCK_HAL_SetOutDiv
 *fill*         0x00002c3e        0x2 
 .text.INT_SYS_DisableIRQ
                0x00002c40       0x4c /opt/Freescale/KSDK_1.2.0/examples/frdmk64f/demo_apps/usb/device/hid/hhkb/bm/kds/../../../../../../../../../lib/ksdk_platform_lib/kds/K64F12/debug/libksdk_platform.a(fsl_lptmr_driver.o)
 .text.LPTMR_DRV_Init
                0x00002c8c      0x130 /opt/Freescale/KSDK_1.2.0/examples/frdmk64f/demo_apps/usb/device/hid/hhkb/bm/kds/../../../../../../../../../lib/ksdk_platform_lib/kds/K64F12/debug/libksdk_platform.a(fsl_lptmr_driver.o)
                0x00002c8c                LPTMR_DRV_Init
 .text.LPTMR_DRV_Start
                0x00002dbc       0x48 /opt/Freescale/KSDK_1.2.0/examples/frdmk64f/demo_apps/usb/device/hid/hhkb/bm/kds/../../../../../../../../../lib/ksdk_platform_lib/kds/K64F12/debug/libksdk_platform.a(fsl_lptmr_driver.o)
                0x00002dbc                LPTMR_DRV_Start
 .text.LPTMR_DRV_SetTimerPeriodUs
                0x00002e04       0xa4 /opt/Freescale/KSDK_1.2.0/examples/frdmk64f/demo_apps/usb/device/hid/hhkb/bm/kds/../../../../../../../../../lib/ksdk_platform_lib/kds/K64F12/debug/libksdk_platform.a(fsl_lptmr_driver.o)
                0x00002e04                LPTMR_DRV_SetTimerPeriodUs
 .text.LPTMR_DRV_InstallCallback
                0x00002ea8       0x34 /opt/Freescale/KSDK_1.2.0/examples/frdmk64f/demo_apps/usb/device/hid/hhkb/bm/kds/../../../../../../../../../lib/ksdk_platform_lib/kds/K64F12/debug/libksdk_platform.a(fsl_lptmr_driver.o)
                0x00002ea8                LPTMR_DRV_InstallCallback
 .text.LPTMR_DRV_IRQHandler
                0x00002edc       0x64 /opt/Freescale/KSDK_1.2.0/examples/frdmk64f/demo_apps/usb/device/hid/hhkb/bm/kds/../../../../../../../../../lib/ksdk_platform_lib/kds/K64F12/debug/libksdk_platform.a(fsl_lptmr_driver.o)
                0x00002edc                LPTMR_DRV_IRQHandler
 .text.unlikely.PORT_HAL_SetMuxMode.part.0
                0x00002f40       0x1c /opt/Freescale/KSDK_1.2.0/examples/frdmk64f/demo_apps/usb/device/hid/hhkb/bm/kds/../../../../../../../../../lib/ksdk_platform_lib/kds/K64F12/debug/libksdk_platform.a(fsl_gpio_driver.o)
 .text.GPIO_DRV_InputPinInit
                0x00002f5c       0xe4 /opt/Freescale/KSDK_1.2.0/examples/frdmk64f/demo_apps/usb/device/hid/hhkb/bm/kds/../../../../../../../../../lib/ksdk_platform_lib/kds/K64F12/debug/libksdk_platform.a(fsl_gpio_driver.o)
                0x00002f5c                GPIO_DRV_InputPinInit
 .text.GPIO_DRV_OutputPinInit
                0x00003040       0x70 /opt/Freescale/KSDK_1.2.0/examples/frdmk64f/demo_apps/usb/device/hid/hhkb/bm/kds/../../../../../../../../../lib/ksdk_platform_lib/kds/K64F12/debug/libksdk_platform.a(fsl_gpio_driver.o)
                0x00003040                GPIO_DRV_OutputPinInit
 .text.GPIO_DRV_WritePinOutput
                0x000030b0       0x18 /opt/Freescale/KSDK_1.2.0/examples/frdmk64f/demo_apps/usb/device/hid/hhkb/bm/kds/../../../../../../../../../lib/ksdk_platform_lib/kds/K64F12/debug/libksdk_platform.a(fsl_gpio_driver.o)
                0x000030b0                GPIO_DRV_WritePinOutput
 .text.GPIO_DRV_SetPinOutput
                0x000030c8       0x38 /opt/Freescale/KSDK_1.2.0/examples/frdmk64f/demo_apps/usb/device/hid/hhkb/bm/kds/../../../../../../../../../lib/ksdk_platform_lib/kds/K64F12/debug/libksdk_platform.a(fsl_gpio_driver.o)
                0x000030c8                GPIO_DRV_SetPinOutput
 .text.GPIO_DRV_ClearPinOutput
                0x00003100       0x38 /opt/Freescale/KSDK_1.2.0/examples/frdmk64f/demo_apps/usb/device/hid/hhkb/bm/kds/../../../../../../../../../lib/ksdk_platform_lib/kds/K64F12/debug/libksdk_platform.a(fsl_gpio_driver.o)
                0x00003100                GPIO_DRV_ClearPinOutput
 .text.GPIO_DRV_TogglePinOutput
                0x00003138       0x38 /opt/Freescale/KSDK_1.2.0/examples/frdmk64f/demo_apps/usb/device/hid/hhkb/bm/kds/../../../../../../../../../lib/ksdk_platform_lib/kds/K64F12/debug/libksdk_platform.a(fsl_gpio_driver.o)
                0x00003138                GPIO_DRV_TogglePinOutput
 .text.GPIO_DRV_ReadPinInput
                0x00003170       0x3c /opt/Freescale/KSDK_1.2.0/examples/frdmk64f/demo_apps/usb/device/hid/hhkb/bm/kds/../../../../../../../../../lib/ksdk_platform_lib/kds/K64F12/debug/libksdk_platform.a(fsl_gpio_driver.o)
                0x00003170                GPIO_DRV_ReadPinInput
 .text.SIM_HAL_EnableClock.constprop.12
                0x000031ac       0x10 /opt/Freescale/KSDK_1.2.0/examples/frdmk64f/demo_apps/usb/device/hid/hhkb/bm/kds/../../../../../../../../../lib/ksdk_platform_lib/kds/K64F12/debug/libksdk_platform.a(fsl_clock_MK64F12.o)
 .text.CLOCK_SYS_GetCoreClockFreq
                0x000031bc       0x24 /opt/Freescale/KSDK_1.2.0/examples/frdmk64f/demo_apps/usb/device/hid/hhkb/bm/kds/../../../../../../../../../lib/ksdk_platform_lib/kds/K64F12/debug/libksdk_platform.a(fsl_clock_MK64F12.o)
                0x000031bc                CLOCK_SYS_GetCoreClockFreq
 .text.CLOCK_SYS_SetConfiguration
                0x000031e0       0x94 /opt/Freescale/KSDK_1.2.0/examples/frdmk64f/demo_apps/usb/device/hid/hhkb/bm/kds/../../../../../../../../../lib/ksdk_platform_lib/kds/K64F12/debug/libksdk_platform.a(fsl_clock_MK64F12.o)
                0x000031e0                CLOCK_SYS_SetConfiguration
 .text.CLOCK_SYS_FllStableDelay
                0x00003274       0x1a /opt/Freescale/KSDK_1.2.0/examples/frdmk64f/demo_apps/usb/device/hid/hhkb/bm/kds/../../../../../../../../../lib/ksdk_platform_lib/kds/K64F12/debug/libksdk_platform.a(fsl_clock_MK64F12.o)
 *fill*         0x0000328e        0x2 
 .text.CLOCK_SYS_GetSystemClockFreq
                0x00003290       0x24 /opt/Freescale/KSDK_1.2.0/examples/frdmk64f/demo_apps/usb/device/hid/hhkb/bm/kds/../../../../../../../../../lib/ksdk_platform_lib/kds/K64F12/debug/libksdk_platform.a(fsl_clock_MK64F12.o)
                0x00003290                CLOCK_SYS_GetSystemClockFreq
 .text.CLOCK_SYS_GetBusClockFreq
                0x000032b4       0x24 /opt/Freescale/KSDK_1.2.0/examples/frdmk64f/demo_apps/usb/device/hid/hhkb/bm/kds/../../../../../../../../../lib/ksdk_platform_lib/kds/K64F12/debug/libksdk_platform.a(fsl_clock_MK64F12.o)
                0x000032b4                CLOCK_SYS_GetBusClockFreq
 .text.CLOCK_SYS_GetExternalRefClock32kFreq
                0x000032d8       0x40 /opt/Freescale/KSDK_1.2.0/examples/frdmk64f/demo_apps/usb/device/hid/hhkb/bm/kds/../../../../../../../../../lib/ksdk_platform_lib/kds/K64F12/debug/libksdk_platform.a(fsl_clock_MK64F12.o)
                0x000032d8                CLOCK_SYS_GetExternalRefClock32kFreq
 .text.CLOCK_SYS_GetOsc0ExternalRefClockFreq
                0x00003318       0x20 /opt/Freescale/KSDK_1.2.0/examples/frdmk64f/demo_apps/usb/device/hid/hhkb/bm/kds/../../../../../../../../../lib/ksdk_platform_lib/kds/K64F12/debug/libksdk_platform.a(fsl_clock_MK64F12.o)
                0x00003318                CLOCK_SYS_GetOsc0ExternalRefClockFreq
 .text.CLOCK_SYS_GetLptmrFreq
                0x00003338       0x28 /opt/Freescale/KSDK_1.2.0/examples/frdmk64f/demo_apps/usb/device/hid/hhkb/bm/kds/../../../../../../../../../lib/ksdk_platform_lib/kds/K64F12/debug/libksdk_platform.a(fsl_clock_MK64F12.o)
                0x00003338                CLOCK_SYS_GetLptmrFreq
 .text.CLOCK_SYS_GetUartFreq
                0x00003360       0x1a /opt/Freescale/KSDK_1.2.0/examples/frdmk64f/demo_apps/usb/device/hid/hhkb/bm/kds/../../../../../../../../../lib/ksdk_platform_lib/kds/K64F12/debug/libksdk_platform.a(fsl_clock_MK64F12.o)
                0x00003360                CLOCK_SYS_GetUartFreq
 *fill*         0x0000337a        0x2 
 .text.CLOCK_SYS_EnablePortClock
                0x0000337c       0x30 /opt/Freescale/KSDK_1.2.0/examples/frdmk64f/demo_apps/usb/device/hid/hhkb/bm/kds/../../../../../../../../../lib/ksdk_platform_lib/kds/K64F12/debug/libksdk_platform.a(fsl_clock_MK64F12.o)
                0x0000337c                CLOCK_SYS_EnablePortClock
 .text.CLOCK_SYS_EnableUartClock
                0x000033ac       0x30 /opt/Freescale/KSDK_1.2.0/examples/frdmk64f/demo_apps/usb/device/hid/hhkb/bm/kds/../../../../../../../../../lib/ksdk_platform_lib/kds/K64F12/debug/libksdk_platform.a(fsl_clock_MK64F12.o)
                0x000033ac                CLOCK_SYS_EnableUartClock
 .text.CLOCK_SYS_SetMcgPeeToFbe
                0x000033dc       0x38 /opt/Freescale/KSDK_1.2.0/examples/frdmk64f/demo_apps/usb/device/hid/hhkb/bm/kds/../../../../../../../../../lib/ksdk_platform_lib/kds/K64F12/debug/libksdk_platform.a(fsl_clock_manager.o)
 .text.CLOCK_SYS_SetMcgMode
                0x00003414      0x12c /opt/Freescale/KSDK_1.2.0/examples/frdmk64f/demo_apps/usb/device/hid/hhkb/bm/kds/../../../../../../../../../lib/ksdk_platform_lib/kds/K64F12/debug/libksdk_platform.a(fsl_clock_manager.o)
                0x00003414                CLOCK_SYS_SetMcgMode
 .text.CLOCK_SYS_SetOscerConfigration
                0x00003540       0x1c /opt/Freescale/KSDK_1.2.0/examples/frdmk64f/demo_apps/usb/device/hid/hhkb/bm/kds/../../../../../../../../../lib/ksdk_platform_lib/kds/K64F12/debug/libksdk_platform.a(fsl_clock_manager.o)
                0x00003540                CLOCK_SYS_SetOscerConfigration
 .text.CLOCK_SYS_OscInit
                0x0000355c       0x98 /opt/Freescale/KSDK_1.2.0/examples/frdmk64f/demo_apps/usb/device/hid/hhkb/bm/kds/../../../../../../../../../lib/ksdk_platform_lib/kds/K64F12/debug/libksdk_platform.a(fsl_clock_manager.o)
                0x0000355c                CLOCK_SYS_OscInit
 .text.CLOCK_SYS_RtcOscInit
                0x000035f4       0x68 /opt/Freescale/KSDK_1.2.0/examples/frdmk64f/demo_apps/usb/device/hid/hhkb/bm/kds/../../../../../../../../../lib/ksdk_platform_lib/kds/K64F12/debug/libksdk_platform.a(fsl_clock_manager.o)
                0x000035f4                CLOCK_SYS_RtcOscInit
 .text.OSA_TimeInit
                0x0000365c       0x44 /opt/Freescale/KSDK_1.2.0/examples/frdmk64f/demo_apps/usb/device/hid/hhkb/bm/kds/../../../../../../../../../lib/ksdk_platform_lib/kds/K64F12/debug/libksdk_platform.a(fsl_os_abstraction_bm.o)
                0x0000365c                OSA_TimeInit
 .text.OSA_TimeDiff
                0x000036a0        0xe /opt/Freescale/KSDK_1.2.0/examples/frdmk64f/demo_apps/usb/device/hid/hhkb/bm/kds/../../../../../../../../../lib/ksdk_platform_lib/kds/K64F12/debug/libksdk_platform.a(fsl_os_abstraction_bm.o)
                0x000036a0                OSA_TimeDiff
 *fill*         0x000036ae        0x2 
 .text.OSA_MutexCreate
                0x000036b0       0x2c /opt/Freescale/KSDK_1.2.0/examples/frdmk64f/demo_apps/usb/device/hid/hhkb/bm/kds/../../../../../../../../../lib/ksdk_platform_lib/kds/K64F12/debug/libksdk_platform.a(fsl_os_abstraction_bm.o)
                0x000036b0                OSA_MutexCreate
 .text.OSA_MutexUnlock
                0x000036dc       0x30 /opt/Freescale/KSDK_1.2.0/examples/frdmk64f/demo_apps/usb/device/hid/hhkb/bm/kds/../../../../../../../../../lib/ksdk_platform_lib/kds/K64F12/debug/libksdk_platform.a(fsl_os_abstraction_bm.o)
                0x000036dc                OSA_MutexUnlock
 .text.OSA_MutexDestroy
                0x0000370c       0x24 /opt/Freescale/KSDK_1.2.0/examples/frdmk64f/demo_apps/usb/device/hid/hhkb/bm/kds/../../../../../../../../../lib/ksdk_platform_lib/kds/K64F12/debug/libksdk_platform.a(fsl_os_abstraction_bm.o)
                0x0000370c                OSA_MutexDestroy
 .text.task_init
                0x00003730       0x38 /opt/Freescale/KSDK_1.2.0/examples/frdmk64f/demo_apps/usb/device/hid/hhkb/bm/kds/../../../../../../../../../lib/ksdk_platform_lib/kds/K64F12/debug/libksdk_platform.a(fsl_os_abstraction_bm.o)
                0x00003730                task_init
 .text.OSA_MemAllocZero
                0x00003768        0x8 /opt/Freescale/KSDK_1.2.0/examples/frdmk64f/demo_apps/usb/device/hid/hhkb/bm/kds/../../../../../../../../../lib/ksdk_platform_lib/kds/K64F12/debug/libksdk_platform.a(fsl_os_abstraction_bm.o)
                0x00003768                OSA_MemAllocZero
 .text.OSA_MemFree
                0x00003770        0xa /opt/Freescale/KSDK_1.2.0/examples/frdmk64f/demo_apps/usb/device/hid/hhkb/bm/kds/../../../../../../../../../lib/ksdk_platform_lib/kds/K64F12/debug/libksdk_platform.a(fsl_os_abstraction_bm.o)
                0x00003770                OSA_MemFree
 *fill*         0x0000377a        0x2 
 .text.OSA_TimeGetMsec
                0x0000377c        0xc /opt/Freescale/KSDK_1.2.0/examples/frdmk64f/demo_apps/usb/device/hid/hhkb/bm/kds/../../../../../../../../../lib/ksdk_platform_lib/kds/K64F12/debug/libksdk_platform.a(fsl_os_abstraction_bm.o)
                0x0000377c                OSA_TimeGetMsec
 .text.OSA_MutexLock
                0x00003788       0x84 /opt/Freescale/KSDK_1.2.0/examples/frdmk64f/demo_apps/usb/device/hid/hhkb/bm/kds/../../../../../../../../../lib/ksdk_platform_lib/kds/K64F12/debug/libksdk_platform.a(fsl_os_abstraction_bm.o)
                0x00003788                OSA_MutexLock
 .text.OSA_InstallIntHandler
                0x0000380c        0x6 /opt/Freescale/KSDK_1.2.0/examples/frdmk64f/demo_apps/usb/device/hid/hhkb/bm/kds/../../../../../../../../../lib/ksdk_platform_lib/kds/K64F12/debug/libksdk_platform.a(fsl_os_abstraction_bm.o)
                0x0000380c                OSA_InstallIntHandler
 .text.OSA_EnterCritical
                0x00003812        0xa /opt/Freescale/KSDK_1.2.0/examples/frdmk64f/demo_apps/usb/device/hid/hhkb/bm/kds/../../../../../../../../../lib/ksdk_platform_lib/kds/K64F12/debug/libksdk_platform.a(fsl_os_abstraction_bm.o)
                0x00003812                OSA_EnterCritical
 .text.OSA_ExitCritical
                0x0000381c        0xa /opt/Freescale/KSDK_1.2.0/examples/frdmk64f/demo_apps/usb/device/hid/hhkb/bm/kds/../../../../../../../../../lib/ksdk_platform_lib/kds/K64F12/debug/libksdk_platform.a(fsl_os_abstraction_bm.o)
                0x0000381c                OSA_ExitCritical
 .text.OSA_Init
                0x00003826        0xe /opt/Freescale/KSDK_1.2.0/examples/frdmk64f/demo_apps/usb/device/hid/hhkb/bm/kds/../../../../../../../../../lib/ksdk_platform_lib/kds/K64F12/debug/libksdk_platform.a(fsl_os_abstraction_bm.o)
                0x00003826                OSA_Init
 .text.OSA_Start
                0x00003834       0x20 /opt/Freescale/KSDK_1.2.0/examples/frdmk64f/demo_apps/usb/device/hid/hhkb/bm/kds/../../../../../../../../../lib/ksdk_platform_lib/kds/K64F12/debug/libksdk_platform.a(fsl_os_abstraction_bm.o)
                0x00003834                OSA_Start
 .text.OSC_HAL_SetCapacitor
                0x00003854        0xe /opt/Freescale/KSDK_1.2.0/examples/frdmk64f/demo_apps/usb/device/hid/hhkb/bm/kds/../../../../../../../../../lib/ksdk_platform_lib/kds/K64F12/debug/libksdk_platform.a(fsl_osc_hal.o)
                0x00003854                OSC_HAL_SetCapacitor
 *fill*         0x00003862        0x2 
 .text.CLOCK_HAL_TestOscFreq
                0x00003864       0x28 /opt/Freescale/KSDK_1.2.0/examples/frdmk64f/demo_apps/usb/device/hid/hhkb/bm/kds/../../../../../../../../../lib/ksdk_platform_lib/kds/K64F12/debug/libksdk_platform.a(fsl_mcg_hal.o)
                0x00003864                CLOCK_HAL_TestOscFreq
 .text.CLOCK_HAL_GetMcgExternalClkFreq
                0x0000388c        0xa /opt/Freescale/KSDK_1.2.0/examples/frdmk64f/demo_apps/usb/device/hid/hhkb/bm/kds/../../../../../../../../../lib/ksdk_platform_lib/kds/K64F12/debug/libksdk_platform.a(fsl_mcg_hal.o)
 .text.CLOCK_HAL_TestFllExternalRefFreq
                0x00003896       0x32 /opt/Freescale/KSDK_1.2.0/examples/frdmk64f/demo_apps/usb/device/hid/hhkb/bm/kds/../../../../../../../../../lib/ksdk_platform_lib/kds/K64F12/debug/libksdk_platform.a(fsl_mcg_hal.o)
                0x00003896                CLOCK_HAL_TestFllExternalRefFreq
 .text.CLOCK_HAL_GetFllRefClk
                0x000038c8       0x3c /opt/Freescale/KSDK_1.2.0/examples/frdmk64f/demo_apps/usb/device/hid/hhkb/bm/kds/../../../../../../../../../lib/ksdk_platform_lib/kds/K64F12/debug/libksdk_platform.a(fsl_mcg_hal.o)
                0x000038c8                CLOCK_HAL_GetFllRefClk
 .text.CLOCK_HAL_TestFllFreq
                0x00003904       0x34 /opt/Freescale/KSDK_1.2.0/examples/frdmk64f/demo_apps/usb/device/hid/hhkb/bm/kds/../../../../../../../../../lib/ksdk_platform_lib/kds/K64F12/debug/libksdk_platform.a(fsl_mcg_hal.o)
                0x00003904                CLOCK_HAL_TestFllFreq
 .text.CLOCK_HAL_GetFllClk
                0x00003938       0x36 /opt/Freescale/KSDK_1.2.0/examples/frdmk64f/demo_apps/usb/device/hid/hhkb/bm/kds/../../../../../../../../../lib/ksdk_platform_lib/kds/K64F12/debug/libksdk_platform.a(fsl_mcg_hal.o)
                0x00003938                CLOCK_HAL_GetFllClk
 .text.CLOCK_HAL_UpdateFastClkInternalRefDiv
                0x0000396e       0x58 /opt/Freescale/KSDK_1.2.0/examples/frdmk64f/demo_apps/usb/device/hid/hhkb/bm/kds/../../../../../../../../../lib/ksdk_platform_lib/kds/K64F12/debug/libksdk_platform.a(fsl_mcg_hal.o)
                0x0000396e                CLOCK_HAL_UpdateFastClkInternalRefDiv
 .text.CLOCK_HAL_GetPll0Clk
                0x000039c6       0x3e /opt/Freescale/KSDK_1.2.0/examples/frdmk64f/demo_apps/usb/device/hid/hhkb/bm/kds/../../../../../../../../../lib/ksdk_platform_lib/kds/K64F12/debug/libksdk_platform.a(fsl_mcg_hal.o)
                0x000039c6                CLOCK_HAL_GetPll0Clk
 .text.CLOCK_HAL_EnablePll0InFllMode
                0x00003a04       0x3a /opt/Freescale/KSDK_1.2.0/examples/frdmk64f/demo_apps/usb/device/hid/hhkb/bm/kds/../../../../../../../../../lib/ksdk_platform_lib/kds/K64F12/debug/libksdk_platform.a(fsl_mcg_hal.o)
                0x00003a04                CLOCK_HAL_EnablePll0InFllMode
 *fill*         0x00003a3e        0x2 
 .text.CLOCK_HAL_GetInternalRefClk
                0x00003a40       0x3c /opt/Freescale/KSDK_1.2.0/examples/frdmk64f/demo_apps/usb/device/hid/hhkb/bm/kds/../../../../../../../../../lib/ksdk_platform_lib/kds/K64F12/debug/libksdk_platform.a(fsl_mcg_hal.o)
                0x00003a40                CLOCK_HAL_GetInternalRefClk
 .text.CLOCK_HAL_GetOutClk
                0x00003a7c       0x22 /opt/Freescale/KSDK_1.2.0/examples/frdmk64f/demo_apps/usb/device/hid/hhkb/bm/kds/../../../../../../../../../lib/ksdk_platform_lib/kds/K64F12/debug/libksdk_platform.a(fsl_mcg_hal.o)
                0x00003a7c                CLOCK_HAL_GetOutClk
 .text.CLOCK_HAL_SetOsc0Mode
                0x00003a9e       0x24 /opt/Freescale/KSDK_1.2.0/examples/frdmk64f/demo_apps/usb/device/hid/hhkb/bm/kds/../../../../../../../../../lib/ksdk_platform_lib/kds/K64F12/debug/libksdk_platform.a(fsl_mcg_hal.o)
                0x00003a9e                CLOCK_HAL_SetOsc0Mode
 .text.CLOCK_HAL_PrepareOsc
                0x00003ac2       0x2c /opt/Freescale/KSDK_1.2.0/examples/frdmk64f/demo_apps/usb/device/hid/hhkb/bm/kds/../../../../../../../../../lib/ksdk_platform_lib/kds/K64F12/debug/libksdk_platform.a(fsl_mcg_hal_modes.o)
 .text.CLOCK_HAL_GetMcgMode
                0x00003aee       0x76 /opt/Freescale/KSDK_1.2.0/examples/frdmk64f/demo_apps/usb/device/hid/hhkb/bm/kds/../../../../../../../../../lib/ksdk_platform_lib/kds/K64F12/debug/libksdk_platform.a(fsl_mcg_hal_modes.o)
                0x00003aee                CLOCK_HAL_GetMcgMode
 .text.CLOCK_HAL_SetFbiMode
                0x00003b64       0xbc /opt/Freescale/KSDK_1.2.0/examples/frdmk64f/demo_apps/usb/device/hid/hhkb/bm/kds/../../../../../../../../../lib/ksdk_platform_lib/kds/K64F12/debug/libksdk_platform.a(fsl_mcg_hal_modes.o)
                0x00003b64                CLOCK_HAL_SetFbiMode
 .text.CLOCK_HAL_SetFbeMode
                0x00003c20       0xf4 /opt/Freescale/KSDK_1.2.0/examples/frdmk64f/demo_apps/usb/device/hid/hhkb/bm/kds/../../../../../../../../../lib/ksdk_platform_lib/kds/K64F12/debug/libksdk_platform.a(fsl_mcg_hal_modes.o)
                0x00003c20                CLOCK_HAL_SetFbeMode
 .text.CLOCK_HAL_SetPbeMode
                0x00003d14       0xd0 /opt/Freescale/KSDK_1.2.0/examples/frdmk64f/demo_apps/usb/device/hid/hhkb/bm/kds/../../../../../../../../../lib/ksdk_platform_lib/kds/K64F12/debug/libksdk_platform.a(fsl_mcg_hal_modes.o)
                0x00003d14                CLOCK_HAL_SetPbeMode
 .text.LPTMR_HAL_SetTimerWorkingMode
                0x00003de4       0x40 /opt/Freescale/KSDK_1.2.0/examples/frdmk64f/demo_apps/usb/device/hid/hhkb/bm/kds/../../../../../../../../../lib/ksdk_platform_lib/kds/K64F12/debug/libksdk_platform.a(fsl_lptmr_hal.o)
                0x00003de4                LPTMR_HAL_SetTimerWorkingMode
 .text.LPTMR_HAL_SetPrescalerMode
                0x00003e24       0x1c /opt/Freescale/KSDK_1.2.0/examples/frdmk64f/demo_apps/usb/device/hid/hhkb/bm/kds/../../../../../../../../../lib/ksdk_platform_lib/kds/K64F12/debug/libksdk_platform.a(fsl_lptmr_hal.o)
                0x00003e24                LPTMR_HAL_SetPrescalerMode
 .text.LPTMR_HAL_GetCounterValue
                0x00003e40        0xe /opt/Freescale/KSDK_1.2.0/examples/frdmk64f/demo_apps/usb/device/hid/hhkb/bm/kds/../../../../../../../../../lib/ksdk_platform_lib/kds/K64F12/debug/libksdk_platform.a(fsl_lptmr_hal.o)
                0x00003e40                LPTMR_HAL_GetCounterValue
 *fill*         0x00003e4e        0x2 
 .text.INT_SYS_InstallHandler
                0x00003e50       0x48 /opt/Freescale/KSDK_1.2.0/examples/frdmk64f/demo_apps/usb/device/hid/hhkb/bm/kds/../../../../../../../../../lib/ksdk_platform_lib/kds/K64F12/debug/libksdk_platform.a(fsl_interrupt_manager.o)
                0x00003e50                INT_SYS_InstallHandler
 .text.INT_SYS_EnableIRQGlobal
                0x00003e98       0x14 /opt/Freescale/KSDK_1.2.0/examples/frdmk64f/demo_apps/usb/device/hid/hhkb/bm/kds/../../../../../../../../../lib/ksdk_platform_lib/kds/K64F12/debug/libksdk_platform.a(fsl_interrupt_manager.o)
                0x00003e98                INT_SYS_EnableIRQGlobal
 .text.INT_SYS_DisableIRQGlobal
                0x00003eac       0x10 /opt/Freescale/KSDK_1.2.0/examples/frdmk64f/demo_apps/usb/device/hid/hhkb/bm/kds/../../../../../../../../../lib/ksdk_platform_lib/kds/K64F12/debug/libksdk_platform.a(fsl_interrupt_manager.o)
                0x00003eac                INT_SYS_DisableIRQGlobal
 .text.GPIO_HAL_SetPinDir
                0x00003ebc       0x3c /opt/Freescale/KSDK_1.2.0/examples/frdmk64f/demo_apps/usb/device/hid/hhkb/bm/kds/../../../../../../../../../lib/ksdk_platform_lib/kds/K64F12/debug/libksdk_platform.a(fsl_gpio_hal.o)
                0x00003ebc                GPIO_HAL_SetPinDir
 .text.GPIO_HAL_WritePinOutput
                0x00003ef8       0x30 /opt/Freescale/KSDK_1.2.0/examples/frdmk64f/demo_apps/usb/device/hid/hhkb/bm/kds/../../../../../../../../../lib/ksdk_platform_lib/kds/K64F12/debug/libksdk_platform.a(fsl_gpio_hal.o)
                0x00003ef8                GPIO_HAL_WritePinOutput
 .text.__assert_func
                0x00003f28       0x38 /opt/Freescale/KDS_3.0.0/toolchain/bin/../lib/gcc/arm-none-eabi/4.8.4/../../../../arm-none-eabi/lib/armv7e-m/fpu/libg_s.a(lib_a-assert.o)
                0x00003f28                __assert_func
 .text.calloc   0x00003f60       0x14 /opt/Freescale/KDS_3.0.0/toolchain/bin/../lib/gcc/arm-none-eabi/4.8.4/../../../../arm-none-eabi/lib/armv7e-m/fpu/libg_s.a(lib_a-calloc.o)
                0x00003f60                calloc
 .text.__errno  0x00003f74        0xc /opt/Freescale/KDS_3.0.0/toolchain/bin/../lib/gcc/arm-none-eabi/4.8.4/../../../../arm-none-eabi/lib/armv7e-m/fpu/libg_s.a(lib_a-errno.o)
                0x00003f74                __errno
 .text.exit     0x00003f80       0x28 /opt/Freescale/KDS_3.0.0/toolchain/bin/../lib/gcc/arm-none-eabi/4.8.4/../../../../arm-none-eabi/lib/armv7e-m/fpu/libg_s.a(lib_a-exit.o)
                0x00003f80                exit
 .text.fprintf  0x00003fa8       0x24 /opt/Freescale/KDS_3.0.0/toolchain/bin/../lib/gcc/arm-none-eabi/4.8.4/../../../../arm-none-eabi/lib/armv7e-m/fpu/libg_s.a(lib_a-fprintf.o)
                0x00003fa8                fprintf
                0x00003fa8                fiprintf
 .text.__libc_init_array
                0x00003fcc       0x4c /opt/Freescale/KDS_3.0.0/toolchain/bin/../lib/gcc/arm-none-eabi/4.8.4/../../../../arm-none-eabi/lib/armv7e-m/fpu/libg_s.a(lib_a-init.o)
                0x00003fcc                __libc_init_array
 .text.free     0x00004018       0x10 /opt/Freescale/KDS_3.0.0/toolchain/bin/../lib/gcc/arm-none-eabi/4.8.4/../../../../arm-none-eabi/lib/armv7e-m/fpu/libg_s.a(lib_a-malloc.o)
                0x00004018                free
 .text.memcpy   0x00004028       0x12 /opt/Freescale/KDS_3.0.0/toolchain/bin/../lib/gcc/arm-none-eabi/4.8.4/../../../../arm-none-eabi/lib/armv7e-m/fpu/libg_s.a(lib_a-memcpy-stub.o)
                0x00004028                memcpy
 .text.memset   0x0000403a       0x10 /opt/Freescale/KDS_3.0.0/toolchain/bin/../lib/gcc/arm-none-eabi/4.8.4/../../../../arm-none-eabi/lib/armv7e-m/fpu/libg_s.a(lib_a-memset.o)
                0x0000403a                memset
 .text._calloc_r
                0x0000404a       0x1c /opt/Freescale/KDS_3.0.0/toolchain/bin/../lib/gcc/arm-none-eabi/4.8.4/../../../../arm-none-eabi/lib/armv7e-m/fpu/libg_s.a(lib_a-nano-callocr.o)
                0x0000404a                _calloc_r
 *fill*         0x00004066        0x2 
 .text._free_r  0x00004068       0x88 /opt/Freescale/KDS_3.0.0/toolchain/bin/../lib/gcc/arm-none-eabi/4.8.4/../../../../arm-none-eabi/lib/armv7e-m/fpu/libg_s.a(lib_a-nano-freer.o)
                0x00004068                _free_r
 .text._malloc_r
                0x000040f0       0xa8 /opt/Freescale/KDS_3.0.0/toolchain/bin/../lib/gcc/arm-none-eabi/4.8.4/../../../../arm-none-eabi/lib/armv7e-m/fpu/libg_s.a(lib_a-nano-mallocr.o)
                0x000040f0                _malloc_r
 .text._sbrk_r  0x00004198       0x20 /opt/Freescale/KDS_3.0.0/toolchain/bin/../lib/gcc/arm-none-eabi/4.8.4/../../../../arm-none-eabi/lib/armv7e-m/fpu/libg_s.a(lib_a-sbrkr.o)
                0x00004198                _sbrk_r
 .text.strlen   0x000041b8       0x10 /opt/Freescale/KDS_3.0.0/toolchain/bin/../lib/gcc/arm-none-eabi/4.8.4/../../../../arm-none-eabi/lib/armv7e-m/fpu/libg_s.a(lib_a-strlen.o)
                0x000041b8                strlen
 .text.__sfputc_r
                0x000041c8       0x2c /opt/Freescale/KDS_3.0.0/toolchain/bin/../lib/gcc/arm-none-eabi/4.8.4/../../../../arm-none-eabi/lib/armv7e-m/fpu/libg_s.a(lib_a-vfprintf.o)
 .text.__sfputs_r
                0x000041f4       0x24 /opt/Freescale/KDS_3.0.0/toolchain/bin/../lib/gcc/arm-none-eabi/4.8.4/../../../../arm-none-eabi/lib/armv7e-m/fpu/libg_s.a(lib_a-vfprintf.o)
                0x000041f4                __sfputs_r
 .text._vfprintf_r
                0x00004218      0x208 /opt/Freescale/KDS_3.0.0/toolchain/bin/../lib/gcc/arm-none-eabi/4.8.4/../../../../arm-none-eabi/lib/armv7e-m/fpu/libg_s.a(lib_a-vfprintf.o)
                0x00004218                _vfiprintf_r
                0x00004218                _vfprintf_r
 .text._printf_common
                0x00004420       0xe4 /opt/Freescale/KDS_3.0.0/toolchain/bin/../lib/gcc/arm-none-eabi/4.8.4/../../../../arm-none-eabi/lib/armv7e-m/fpu/libg_s.a(lib_a-vfprintf_i.o)
                0x00004420                _printf_common
 .text._printf_i
                0x00004504      0x228 /opt/Freescale/KDS_3.0.0/toolchain/bin/../lib/gcc/arm-none-eabi/4.8.4/../../../../arm-none-eabi/lib/armv7e-m/fpu/libg_s.a(lib_a-vfprintf_i.o)
                0x00004504                _printf_i
 .text.__swbuf_r
                0x0000472c       0xa8 /opt/Freescale/KDS_3.0.0/toolchain/bin/../lib/gcc/arm-none-eabi/4.8.4/../../../../arm-none-eabi/lib/armv7e-m/fpu/libg_s.a(lib_a-wbuf.o)
                0x0000472c                __swbuf_r
 .text.__swsetup_r
                0x000047d4       0xdc /opt/Freescale/KDS_3.0.0/toolchain/bin/../lib/gcc/arm-none-eabi/4.8.4/../../../../arm-none-eabi/lib/armv7e-m/fpu/libg_s.a(lib_a-wsetup.o)
                0x000047d4                __swsetup_r
 .text.abort    0x000048b0        0xe /opt/Freescale/KDS_3.0.0/toolchain/bin/../lib/gcc/arm-none-eabi/4.8.4/../../../../arm-none-eabi/lib/armv7e-m/fpu/libg_s.a(lib_a-abort.o)
                0x000048b0                abort
 .text.__sflush_r
                0x000048be      0x106 /opt/Freescale/KDS_3.0.0/toolchain/bin/../lib/gcc/arm-none-eabi/4.8.4/../../../../arm-none-eabi/lib/armv7e-m/fpu/libg_s.a(lib_a-fflush.o)
                0x000048be                __sflush_r
 .text._fflush_r
                0x000049c4       0x54 /opt/Freescale/KDS_3.0.0/toolchain/bin/../lib/gcc/arm-none-eabi/4.8.4/../../../../arm-none-eabi/lib/armv7e-m/fpu/libg_s.a(lib_a-fflush.o)
                0x000049c4                _fflush_r
 .text._cleanup_r
                0x00004a18       0x32 /opt/Freescale/KDS_3.0.0/toolchain/bin/../lib/gcc/arm-none-eabi/4.8.4/../../../../arm-none-eabi/lib/armv7e-m/fpu/libg_s.a(lib_a-findfp.o)
                0x00004a18                _cleanup_r
 *fill*         0x00004a4a        0x2 
 .text.std.isra.0
                0x00004a4c       0x48 /opt/Freescale/KDS_3.0.0/toolchain/bin/../lib/gcc/arm-none-eabi/4.8.4/../../../../arm-none-eabi/lib/armv7e-m/fpu/libg_s.a(lib_a-findfp.o)
 .text.__sfmoreglue
                0x00004a94       0x2c /opt/Freescale/KDS_3.0.0/toolchain/bin/../lib/gcc/arm-none-eabi/4.8.4/../../../../arm-none-eabi/lib/armv7e-m/fpu/libg_s.a(lib_a-findfp.o)
                0x00004a94                __sfmoreglue
 .text.__sinit  0x00004ac0       0x60 /opt/Freescale/KDS_3.0.0/toolchain/bin/../lib/gcc/arm-none-eabi/4.8.4/../../../../arm-none-eabi/lib/armv7e-m/fpu/libg_s.a(lib_a-findfp.o)
                0x00004ac0                __sinit
 .text.__sfp    0x00004b20       0x74 /opt/Freescale/KDS_3.0.0/toolchain/bin/../lib/gcc/arm-none-eabi/4.8.4/../../../../arm-none-eabi/lib/armv7e-m/fpu/libg_s.a(lib_a-findfp.o)
                0x00004b20                __sfp
 .text.__smakebuf_r
                0x00004b94       0x9c /opt/Freescale/KDS_3.0.0/toolchain/bin/../lib/gcc/arm-none-eabi/4.8.4/../../../../arm-none-eabi/lib/armv7e-m/fpu/libg_s.a(lib_a-makebuf.o)
                0x00004b94                __smakebuf_r
 .text.memchr   0x00004c30       0x1e /opt/Freescale/KDS_3.0.0/toolchain/bin/../lib/gcc/arm-none-eabi/4.8.4/../../../../arm-none-eabi/lib/armv7e-m/fpu/libg_s.a(lib_a-memchr-stub.o)
                0x00004c30                memchr
 .text._raise_r
                0x00004c4e       0x50 /opt/Freescale/KDS_3.0.0/toolchain/bin/../lib/gcc/arm-none-eabi/4.8.4/../../../../arm-none-eabi/lib/armv7e-m/fpu/libg_s.a(lib_a-signal.o)
                0x00004c4e                _raise_r
 *fill*         0x00004c9e        0x2 
 .text.raise    0x00004ca0       0x10 /opt/Freescale/KDS_3.0.0/toolchain/bin/../lib/gcc/arm-none-eabi/4.8.4/../../../../arm-none-eabi/lib/armv7e-m/fpu/libg_s.a(lib_a-signal.o)
                0x00004ca0                raise
 .text._kill_r  0x00004cb0       0x24 /opt/Freescale/KDS_3.0.0/toolchain/bin/../lib/gcc/arm-none-eabi/4.8.4/../../../../arm-none-eabi/lib/armv7e-m/fpu/libg_s.a(lib_a-signalr.o)
                0x00004cb0                _kill_r
 .text._getpid_r
                0x00004cd4        0x4 /opt/Freescale/KDS_3.0.0/toolchain/bin/../lib/gcc/arm-none-eabi/4.8.4/../../../../arm-none-eabi/lib/armv7e-m/fpu/libg_s.a(lib_a-signalr.o)
                0x00004cd4                _getpid_r
 .text.__sread  0x00004cd8       0x22 /opt/Freescale/KDS_3.0.0/toolchain/bin/../lib/gcc/arm-none-eabi/4.8.4/../../../../arm-none-eabi/lib/armv7e-m/fpu/libg_s.a(lib_a-stdio.o)
                0x00004cd8                __sread
 .text.__swrite
                0x00004cfa       0x38 /opt/Freescale/KDS_3.0.0/toolchain/bin/../lib/gcc/arm-none-eabi/4.8.4/../../../../arm-none-eabi/lib/armv7e-m/fpu/libg_s.a(lib_a-stdio.o)
                0x00004cfa                __swrite
 .text.__sseek  0x00004d32       0x24 /opt/Freescale/KDS_3.0.0/toolchain/bin/../lib/gcc/arm-none-eabi/4.8.4/../../../../arm-none-eabi/lib/armv7e-m/fpu/libg_s.a(lib_a-stdio.o)
                0x00004d32                __sseek
 .text.__sclose
                0x00004d56        0x8 /opt/Freescale/KDS_3.0.0/toolchain/bin/../lib/gcc/arm-none-eabi/4.8.4/../../../../arm-none-eabi/lib/armv7e-m/fpu/libg_s.a(lib_a-stdio.o)
                0x00004d56                __sclose
 *fill*         0x00004d5e        0x2 
 .text._write_r
                0x00004d60       0x24 /opt/Freescale/KDS_3.0.0/toolchain/bin/../lib/gcc/arm-none-eabi/4.8.4/../../../../arm-none-eabi/lib/armv7e-m/fpu/libg_s.a(lib_a-writer.o)
                0x00004d60                _write_r
 .text._close_r
                0x00004d84       0x20 /opt/Freescale/KDS_3.0.0/toolchain/bin/../lib/gcc/arm-none-eabi/4.8.4/../../../../arm-none-eabi/lib/armv7e-m/fpu/libg_s.a(lib_a-closer.o)
                0x00004d84                _close_r
 .text._fstat_r
                0x00004da4       0x24 /opt/Freescale/KDS_3.0.0/toolchain/bin/../lib/gcc/arm-none-eabi/4.8.4/../../../../arm-none-eabi/lib/armv7e-m/fpu/libg_s.a(lib_a-fstatr.o)
                0x00004da4                _fstat_r
 .text._isatty_r
                0x00004dc8       0x20 /opt/Freescale/KDS_3.0.0/toolchain/bin/../lib/gcc/arm-none-eabi/4.8.4/../../../../arm-none-eabi/lib/armv7e-m/fpu/libg_s.a(lib_a-isattyr.o)
                0x00004dc8                _isatty_r
 .text._lseek_r
                0x00004de8       0x24 /opt/Freescale/KDS_3.0.0/toolchain/bin/../lib/gcc/arm-none-eabi/4.8.4/../../../../arm-none-eabi/lib/armv7e-m/fpu/libg_s.a(lib_a-lseekr.o)
                0x00004de8                _lseek_r
 .text._read_r  0x00004e0c       0x24 /opt/Freescale/KDS_3.0.0/toolchain/bin/../lib/gcc/arm-none-eabi/4.8.4/../../../../arm-none-eabi/lib/armv7e-m/fpu/libg_s.a(lib_a-readr.o)
                0x00004e0c                _read_r
 .text._close   0x00004e30       0x10 /opt/Freescale/KDS_3.0.0/toolchain/bin/../lib/gcc/arm-none-eabi/4.8.4/../../../../arm-none-eabi/lib/armv7e-m/fpu/libnosys.a(close.o)
                0x00004e30                _close
 .text._fstat   0x00004e40       0x10 /opt/Freescale/KDS_3.0.0/toolchain/bin/../lib/gcc/arm-none-eabi/4.8.4/../../../../arm-none-eabi/lib/armv7e-m/fpu/libnosys.a(fstat.o)
                0x00004e40                _fstat
 .text._getpid  0x00004e50       0x10 /opt/Freescale/KDS_3.0.0/toolchain/bin/../lib/gcc/arm-none-eabi/4.8.4/../../../../arm-none-eabi/lib/armv7e-m/fpu/libnosys.a(getpid.o)
                0x00004e50                _getpid
 .text._isatty  0x00004e60       0x10 /opt/Freescale/KDS_3.0.0/toolchain/bin/../lib/gcc/arm-none-eabi/4.8.4/../../../../arm-none-eabi/lib/armv7e-m/fpu/libnosys.a(isatty.o)
                0x00004e60                _isatty
 .text._kill    0x00004e70       0x10 /opt/Freescale/KDS_3.0.0/toolchain/bin/../lib/gcc/arm-none-eabi/4.8.4/../../../../arm-none-eabi/lib/armv7e-m/fpu/libnosys.a(kill.o)
                0x00004e70                _kill
 .text._lseek   0x00004e80       0x10 /opt/Freescale/KDS_3.0.0/toolchain/bin/../lib/gcc/arm-none-eabi/4.8.4/../../../../arm-none-eabi/lib/armv7e-m/fpu/libnosys.a(lseek.o)
                0x00004e80                _lseek
 .text._exit    0x00004e90        0x4 /opt/Freescale/KDS_3.0.0/toolchain/bin/../lib/gcc/arm-none-eabi/4.8.4/../../../../arm-none-eabi/lib/armv7e-m/fpu/libnosys.a(_exit.o)
                0x00004e90                _exit
 *(.rodata)
 .rodata        0x00004e94       0x18 ./utilities/fsl_debug_console.o
 .rodata        0x00004eac        0xc ./board/board.o
 *(.rodata*)
 .rodata.str1.1
                0x00004eb8       0x19 ./sources/keyboard.o
 *fill*         0x00004ed1        0x1 
 .rodata.g_defaultClockConfigRun
                0x00004ed2       0x16 ./board/board.o
                0x00004ed2                g_defaultClockConfigRun
 .rodata.ledPins
                0x00004ee8       0x30 ./board/gpio_pins.o
                0x00004ee8                ledPins
 .rodata.str1.1
                0x00004f18       0x2c /opt/Freescale/KSDK_1.2.0/examples/frdmk64f/demo_apps/usb/device/hid/hhkb/bm/kds/../../../../../../../../../usb/usb_core/device/build/kds/usbd_sdk_frdmk64f_bm/debug/libusbd_bm.a(usb_hid.o)
 .rodata.str1.1
                0x00004f44      0x48c /opt/Freescale/KSDK_1.2.0/examples/frdmk64f/demo_apps/usb/device/hid/hhkb/bm/kds/../../../../../../../../../usb/usb_core/device/build/kds/usbd_sdk_frdmk64f_bm/debug/libusbd_bm.a(usb_dev.o)
 .rodata.str1.1
                0x000053d0       0x53 /opt/Freescale/KSDK_1.2.0/examples/frdmk64f/demo_apps/usb/device/hid/hhkb/bm/kds/../../../../../../../../../usb/usb_core/device/build/kds/usbd_sdk_frdmk64f_bm/debug/libusbd_bm.a(usb_framework.o)
 *fill*         0x00005423        0x1 
 .rodata.g_standard_request
                0x00005424       0x34 /opt/Freescale/KSDK_1.2.0/examples/frdmk64f/demo_apps/usb/device/hid/hhkb/bm/kds/../../../../../../../../../usb/usb_core/device/build/kds/usbd_sdk_frdmk64f_bm/debug/libusbd_bm.a(usb_framework.o)
 .rodata.g_validate_request
                0x00005458       0x27 /opt/Freescale/KSDK_1.2.0/examples/frdmk64f/demo_apps/usb/device/hid/hhkb/bm/kds/../../../../../../../../../usb/usb_core/device/build/kds/usbd_sdk_frdmk64f_bm/debug/libusbd_bm.a(usb_framework.o)
 *fill*         0x0000547f        0x1 
 .rodata._usb_khci_dev_function_table
                0x00005480       0x50 /opt/Freescale/KSDK_1.2.0/examples/frdmk64f/demo_apps/usb/device/hid/hhkb/bm/kds/../../../../../../../../../usb/usb_core/device/build/kds/usbd_sdk_frdmk64f_bm/debug/libusbd_bm.a(device_khci_interface.o)
                0x00005480                _usb_khci_dev_function_table
 .rodata.__func__.7997
                0x000054d0       0x1a /opt/Freescale/KSDK_1.2.0/examples/frdmk64f/demo_apps/usb/device/hid/hhkb/bm/kds/../../../../../../../../../lib/ksdk_platform_lib/kds/K64F12/debug/libksdk_platform.a(fsl_lptmr_driver.o)
 .rodata.__func__.7972
                0x000054ea       0x1b /opt/Freescale/KSDK_1.2.0/examples/frdmk64f/demo_apps/usb/device/hid/hhkb/bm/kds/../../../../../../../../../lib/ksdk_platform_lib/kds/K64F12/debug/libksdk_platform.a(fsl_lptmr_driver.o)
 .rodata.__func__.8001
                0x00005505       0x15 /opt/Freescale/KSDK_1.2.0/examples/frdmk64f/demo_apps/usb/device/hid/hhkb/bm/kds/../../../../../../../../../lib/ksdk_platform_lib/kds/K64F12/debug/libksdk_platform.a(fsl_lptmr_driver.o)
 .rodata.str1.1
                0x0000551a      0x11d /opt/Freescale/KSDK_1.2.0/examples/frdmk64f/demo_apps/usb/device/hid/hhkb/bm/kds/../../../../../../../../../lib/ksdk_platform_lib/kds/K64F12/debug/libksdk_platform.a(fsl_lptmr_driver.o)
 .rodata.__func__.7949
                0x00005637        0xf /opt/Freescale/KSDK_1.2.0/examples/frdmk64f/demo_apps/usb/device/hid/hhkb/bm/kds/../../../../../../../../../lib/ksdk_platform_lib/kds/K64F12/debug/libksdk_platform.a(fsl_lptmr_driver.o)
 .rodata.__func__.6912
                0x00005646       0x12 /opt/Freescale/KSDK_1.2.0/examples/frdmk64f/demo_apps/usb/device/hid/hhkb/bm/kds/../../../../../../../../../lib/ksdk_platform_lib/kds/K64F12/debug/libksdk_platform.a(fsl_lptmr_driver.o)
 .rodata.__func__.7961
                0x00005658       0x10 /opt/Freescale/KSDK_1.2.0/examples/frdmk64f/demo_apps/usb/device/hid/hhkb/bm/kds/../../../../../../../../../lib/ksdk_platform_lib/kds/K64F12/debug/libksdk_platform.a(fsl_lptmr_driver.o)
 .rodata.__func__.6916
                0x00005668       0x13 /opt/Freescale/KSDK_1.2.0/examples/frdmk64f/demo_apps/usb/device/hid/hhkb/bm/kds/../../../../../../../../../lib/ksdk_platform_lib/kds/K64F12/debug/libksdk_platform.a(fsl_lptmr_driver.o)
 .rodata.__func__.6208
                0x0000567b       0x18 /opt/Freescale/KSDK_1.2.0/examples/frdmk64f/demo_apps/usb/device/hid/hhkb/bm/kds/../../../../../../../../../lib/ksdk_platform_lib/kds/K64F12/debug/libksdk_platform.a(fsl_gpio_driver.o)
 .rodata.__func__.6105
                0x00005693       0x14 /opt/Freescale/KSDK_1.2.0/examples/frdmk64f/demo_apps/usb/device/hid/hhkb/bm/kds/../../../../../../../../../lib/ksdk_platform_lib/kds/K64F12/debug/libksdk_platform.a(fsl_gpio_driver.o)
 .rodata.__func__.6213
                0x000056a7       0x19 /opt/Freescale/KSDK_1.2.0/examples/frdmk64f/demo_apps/usb/device/hid/hhkb/bm/kds/../../../../../../../../../lib/ksdk_platform_lib/kds/K64F12/debug/libksdk_platform.a(fsl_gpio_driver.o)
 .rodata.__func__.6237
                0x000056c0       0x16 /opt/Freescale/KSDK_1.2.0/examples/frdmk64f/demo_apps/usb/device/hid/hhkb/bm/kds/../../../../../../../../../lib/ksdk_platform_lib/kds/K64F12/debug/libksdk_platform.a(fsl_gpio_driver.o)
 .rodata.str1.1
                0x000056d6       0x71 /opt/Freescale/KSDK_1.2.0/examples/frdmk64f/demo_apps/usb/device/hid/hhkb/bm/kds/../../../../../../../../../lib/ksdk_platform_lib/kds/K64F12/debug/libksdk_platform.a(fsl_gpio_driver.o)
                                 0xe6 (size before relaxing)
 .rodata.__func__.7870
                0x00005747       0x12 /opt/Freescale/KSDK_1.2.0/examples/frdmk64f/demo_apps/usb/device/hid/hhkb/bm/kds/../../../../../../../../../lib/ksdk_platform_lib/kds/K64F12/debug/libksdk_platform.a(fsl_gpio_driver.o)
 .rodata.__func__.6203
                0x00005759       0x16 /opt/Freescale/KSDK_1.2.0/examples/frdmk64f/demo_apps/usb/device/hid/hhkb/bm/kds/../../../../../../../../../lib/ksdk_platform_lib/kds/K64F12/debug/libksdk_platform.a(fsl_gpio_driver.o)
 .rodata.__func__.7832
                0x0000576f       0x1a /opt/Freescale/KSDK_1.2.0/examples/frdmk64f/demo_apps/usb/device/hid/hhkb/bm/kds/../../../../../../../../../lib/ksdk_platform_lib/kds/K64F12/debug/libksdk_platform.a(fsl_clock_MK64F12.o)
 .rodata.uartGateTable
                0x00005789        0x6 /opt/Freescale/KSDK_1.2.0/examples/frdmk64f/demo_apps/usb/device/hid/hhkb/bm/kds/../../../../../../../../../lib/ksdk_platform_lib/kds/K64F12/debug/libksdk_platform.a(fsl_clock_MK64F12.o)
 .rodata.__func__.7754
                0x0000578f       0x1a /opt/Freescale/KSDK_1.2.0/examples/frdmk64f/demo_apps/usb/device/hid/hhkb/bm/kds/../../../../../../../../../lib/ksdk_platform_lib/kds/K64F12/debug/libksdk_platform.a(fsl_clock_MK64F12.o)
 .rodata.str1.1
                0x000057a9      0x1eb /opt/Freescale/KSDK_1.2.0/examples/frdmk64f/demo_apps/usb/device/hid/hhkb/bm/kds/../../../../../../../../../lib/ksdk_platform_lib/kds/K64F12/debug/libksdk_platform.a(fsl_clock_MK64F12.o)
 .rodata.portGateTable
                0x00005994        0x5 /opt/Freescale/KSDK_1.2.0/examples/frdmk64f/demo_apps/usb/device/hid/hhkb/bm/kds/../../../../../../../../../lib/ksdk_platform_lib/kds/K64F12/debug/libksdk_platform.a(fsl_clock_MK64F12.o)
 .rodata.__func__.7599
                0x00005999       0x1b /opt/Freescale/KSDK_1.2.0/examples/frdmk64f/demo_apps/usb/device/hid/hhkb/bm/kds/../../../../../../../../../lib/ksdk_platform_lib/kds/K64F12/debug/libksdk_platform.a(fsl_clock_MK64F12.o)
 .rodata.__func__.7985
                0x000059b4       0x12 /opt/Freescale/KSDK_1.2.0/examples/frdmk64f/demo_apps/usb/device/hid/hhkb/bm/kds/../../../../../../../../../lib/ksdk_platform_lib/kds/K64F12/debug/libksdk_platform.a(fsl_clock_manager.o)
 .rodata.__func__.8002
                0x000059c6       0x15 /opt/Freescale/KSDK_1.2.0/examples/frdmk64f/demo_apps/usb/device/hid/hhkb/bm/kds/../../../../../../../../../lib/ksdk_platform_lib/kds/K64F12/debug/libksdk_platform.a(fsl_clock_manager.o)
 .rodata.str1.1
                0x000059db       0xb1 /opt/Freescale/KSDK_1.2.0/examples/frdmk64f/demo_apps/usb/device/hid/hhkb/bm/kds/../../../../../../../../../lib/ksdk_platform_lib/kds/K64F12/debug/libksdk_platform.a(fsl_clock_manager.o)
 .rodata.g_oscBase
                0x00005a8c        0x4 /opt/Freescale/KSDK_1.2.0/examples/frdmk64f/demo_apps/usb/device/hid/hhkb/bm/kds/../../../../../../../../../lib/ksdk_platform_lib/kds/K64F12/debug/libksdk_platform.a(fsl_clock_manager_common.o)
                0x00005a8c                g_oscBase
 .rodata.__func__.7903
                0x00005a90        0xe /opt/Freescale/KSDK_1.2.0/examples/frdmk64f/demo_apps/usb/device/hid/hhkb/bm/kds/../../../../../../../../../lib/ksdk_platform_lib/kds/K64F12/debug/libksdk_platform.a(fsl_os_abstraction_bm.o)
 .rodata.__func__.7911
                0x00005a9e       0x11 /opt/Freescale/KSDK_1.2.0/examples/frdmk64f/demo_apps/usb/device/hid/hhkb/bm/kds/../../../../../../../../../lib/ksdk_platform_lib/kds/K64F12/debug/libksdk_platform.a(fsl_os_abstraction_bm.o)
 .rodata.__func__.7897
                0x00005aaf       0x10 /opt/Freescale/KSDK_1.2.0/examples/frdmk64f/demo_apps/usb/device/hid/hhkb/bm/kds/../../../../../../../../../lib/ksdk_platform_lib/kds/K64F12/debug/libksdk_platform.a(fsl_os_abstraction_bm.o)
 .rodata.str1.1
                0x00005abf       0x6d /opt/Freescale/KSDK_1.2.0/examples/frdmk64f/demo_apps/usb/device/hid/hhkb/bm/kds/../../../../../../../../../lib/ksdk_platform_lib/kds/K64F12/debug/libksdk_platform.a(fsl_os_abstraction_bm.o)
 .rodata.__func__.7907
                0x00005b2c       0x10 /opt/Freescale/KSDK_1.2.0/examples/frdmk64f/demo_apps/usb/device/hid/hhkb/bm/kds/../../../../../../../../../lib/ksdk_platform_lib/kds/K64F12/debug/libksdk_platform.a(fsl_os_abstraction_bm.o)
 .rodata.g_rtcBase
                0x00005b3c        0x4 /opt/Freescale/KSDK_1.2.0/examples/frdmk64f/demo_apps/usb/device/hid/hhkb/bm/kds/../../../../../../../../../lib/ksdk_platform_lib/kds/K64F12/debug/libksdk_platform.a(fsl_rtc_common.o)
                0x00005b3c                g_rtcBase
 .rodata.fllFactorTable.6324
                0x00005b40       0x10 /opt/Freescale/KSDK_1.2.0/examples/frdmk64f/demo_apps/usb/device/hid/hhkb/bm/kds/../../../../../../../../../lib/ksdk_platform_lib/kds/K64F12/debug/libksdk_platform.a(fsl_mcg_hal.o)
 .rodata.g_lptmrBase
                0x00005b50        0x4 /opt/Freescale/KSDK_1.2.0/examples/frdmk64f/demo_apps/usb/device/hid/hhkb/bm/kds/../../../../../../../../../lib/ksdk_platform_lib/kds/K64F12/debug/libksdk_platform.a(fsl_lptmr_common.o)
                0x00005b50                g_lptmrBase
 .rodata.g_lptmrIrqId
                0x00005b54        0x1 /opt/Freescale/KSDK_1.2.0/examples/frdmk64f/demo_apps/usb/device/hid/hhkb/bm/kds/../../../../../../../../../lib/ksdk_platform_lib/kds/K64F12/debug/libksdk_platform.a(fsl_lptmr_common.o)
                0x00005b54                g_lptmrIrqId
 .rodata.__func__.6063
                0x00005b55       0x17 /opt/Freescale/KSDK_1.2.0/examples/frdmk64f/demo_apps/usb/device/hid/hhkb/bm/kds/../../../../../../../../../lib/ksdk_platform_lib/kds/K64F12/debug/libksdk_platform.a(fsl_interrupt_manager.o)
 .rodata.str1.1
                0x00005b6c       0x7b /opt/Freescale/KSDK_1.2.0/examples/frdmk64f/demo_apps/usb/device/hid/hhkb/bm/kds/../../../../../../../../../lib/ksdk_platform_lib/kds/K64F12/debug/libksdk_platform.a(fsl_interrupt_manager.o)
                                 0xa6 (size before relaxing)
 .rodata.__func__.6103
                0x00005be7       0x13 /opt/Freescale/KSDK_1.2.0/examples/frdmk64f/demo_apps/usb/device/hid/hhkb/bm/kds/../../../../../../../../../lib/ksdk_platform_lib/kds/K64F12/debug/libksdk_platform.a(fsl_gpio_hal.o)
 .rodata.__func__.6109
                0x00005bfa       0x18 /opt/Freescale/KSDK_1.2.0/examples/frdmk64f/demo_apps/usb/device/hid/hhkb/bm/kds/../../../../../../../../../lib/ksdk_platform_lib/kds/K64F12/debug/libksdk_platform.a(fsl_gpio_hal.o)
 .rodata.str1.1
                0x00005c12       0x3f /opt/Freescale/KSDK_1.2.0/examples/frdmk64f/demo_apps/usb/device/hid/hhkb/bm/kds/../../../../../../../../../lib/ksdk_platform_lib/kds/K64F12/debug/libksdk_platform.a(fsl_gpio_hal.o)
                                 0x48 (size before relaxing)
 *fill*         0x00005c51        0x3 
 .rodata.g_gpioBase
                0x00005c54       0x14 /opt/Freescale/KSDK_1.2.0/examples/frdmk64f/demo_apps/usb/device/hid/hhkb/bm/kds/../../../../../../../../../lib/ksdk_platform_lib/kds/K64F12/debug/libksdk_platform.a(fsl_gpio_common.o)
                0x00005c54                g_gpioBase
 .rodata.g_portBase
                0x00005c68       0x14 /opt/Freescale/KSDK_1.2.0/examples/frdmk64f/demo_apps/usb/device/hid/hhkb/bm/kds/../../../../../../../../../lib/ksdk_platform_lib/kds/K64F12/debug/libksdk_platform.a(fsl_gpio_common.o)
                0x00005c68                g_portBase
 .rodata.g_portIrqId
                0x00005c7c        0x5 /opt/Freescale/KSDK_1.2.0/examples/frdmk64f/demo_apps/usb/device/hid/hhkb/bm/kds/../../../../../../../../../lib/ksdk_platform_lib/kds/K64F12/debug/libksdk_platform.a(fsl_gpio_common.o)
                0x00005c7c                g_portIrqId
 .rodata.str1.1
                0x00005c81       0x3c /opt/Freescale/KDS_3.0.0/toolchain/bin/../lib/gcc/arm-none-eabi/4.8.4/../../../../arm-none-eabi/lib/armv7e-m/fpu/libg_s.a(lib_a-assert.o)
                                 0x3d (size before relaxing)
 .rodata.str1.1
                0x00005cbd        0x2 /opt/Freescale/KDS_3.0.0/toolchain/bin/../lib/gcc/arm-none-eabi/4.8.4/../../../../arm-none-eabi/lib/armv7e-m/fpu/libg_s.a(lib_a-impure.o)
 *fill*         0x00005cbf        0x1 
 .rodata._global_impure_ptr
                0x00005cc0        0x4 /opt/Freescale/KDS_3.0.0/toolchain/bin/../lib/gcc/arm-none-eabi/4.8.4/../../../../arm-none-eabi/lib/armv7e-m/fpu/libg_s.a(lib_a-impure.o)
                0x00005cc0                _global_impure_ptr
 .rodata.str1.1
                0x00005cc4       0x11 /opt/Freescale/KDS_3.0.0/toolchain/bin/../lib/gcc/arm-none-eabi/4.8.4/../../../../arm-none-eabi/lib/armv7e-m/fpu/libg_s.a(lib_a-vfprintf.o)
 .rodata.str1.1
                0x00005cd5       0x22 /opt/Freescale/KDS_3.0.0/toolchain/bin/../lib/gcc/arm-none-eabi/4.8.4/../../../../arm-none-eabi/lib/armv7e-m/fpu/libg_s.a(lib_a-vfprintf_i.o)
 *fill*         0x00005cf7        0x1 
 .rodata.__sf_fake_stdin
                0x00005cf8       0x20 /opt/Freescale/KDS_3.0.0/toolchain/bin/../lib/gcc/arm-none-eabi/4.8.4/../../../../arm-none-eabi/lib/armv7e-m/fpu/libg_s.a(lib_a-findfp.o)
                0x00005cf8                __sf_fake_stdin
 .rodata.__sf_fake_stdout
                0x00005d18       0x20 /opt/Freescale/KDS_3.0.0/toolchain/bin/../lib/gcc/arm-none-eabi/4.8.4/../../../../arm-none-eabi/lib/armv7e-m/fpu/libg_s.a(lib_a-findfp.o)
                0x00005d18                __sf_fake_stdout
 .rodata.__sf_fake_stderr
                0x00005d38       0x20 /opt/Freescale/KDS_3.0.0/toolchain/bin/../lib/gcc/arm-none-eabi/4.8.4/../../../../arm-none-eabi/lib/armv7e-m/fpu/libg_s.a(lib_a-findfp.o)
                0x00005d38                __sf_fake_stderr
 *(.glue_7)
 .glue_7        0x00000000        0x0 linker stubs
 *(.glue_7t)
 .glue_7t       0x00000000        0x0 linker stubs
 *(.eh_frame)
 .eh_frame      0x00005d58        0x0 /opt/Freescale/KDS_3.0.0/toolchain/bin/../lib/gcc/arm-none-eabi/4.8.4/armv7e-m/fpu/crtbegin.o
 *(.init)
 .init          0x00005d58        0x4 /opt/Freescale/KDS_3.0.0/toolchain/bin/../lib/gcc/arm-none-eabi/4.8.4/armv7e-m/fpu/crti.o
                0x00005d58                _init
 .init          0x00005d5c        0x8 /opt/Freescale/KDS_3.0.0/toolchain/bin/../lib/gcc/arm-none-eabi/4.8.4/armv7e-m/fpu/crtn.o
 *(.fini)
 .fini          0x00005d64        0x4 /opt/Freescale/KDS_3.0.0/toolchain/bin/../lib/gcc/arm-none-eabi/4.8.4/armv7e-m/fpu/crti.o
                0x00005d64                _fini
 .fini          0x00005d68        0x8 /opt/Freescale/KDS_3.0.0/toolchain/bin/../lib/gcc/arm-none-eabi/4.8.4/armv7e-m/fpu/crtn.o
                0x00005d70                . = ALIGN (0x4)

.vfp11_veneer   0x00005d70        0x0
 .vfp11_veneer  0x00000000        0x0 linker stubs

.v4_bx          0x00005d70        0x0
 .v4_bx         0x00000000        0x0 linker stubs

.iplt           0x00005d70        0x0
 .iplt          0x00000000        0x0 /opt/Freescale/KDS_3.0.0/toolchain/bin/../lib/gcc/arm-none-eabi/4.8.4/armv7e-m/fpu/crtbegin.o

.ARM.extab
 *(.ARM.extab* .gnu.linkonce.armextab.*)

.ARM            0x00005d70        0x8
                0x00005d70                __exidx_start = .
 *(.ARM.exidx*)
 .ARM.exidx     0x00005d70        0x8 /opt/Freescale/KDS_3.0.0/toolchain/bin/../lib/gcc/arm-none-eabi/4.8.4/../../../../arm-none-eabi/lib/armv7e-m/fpu/crt0.o
                0x00005d78                __exidx_end = .

.rel.dyn        0x00005d78        0x0
 .rel.iplt      0x00000000        0x0 /opt/Freescale/KDS_3.0.0/toolchain/bin/../lib/gcc/arm-none-eabi/4.8.4/armv7e-m/fpu/crtbegin.o

.ctors          0x00005d78        0x0
                0x00005d78                __CTOR_LIST__ = .
 *crtbegin.o(.ctors)
 *crtbegin?.o(.ctors)
 *(EXCLUDE_FILE(*crtend.o *crtend?.o) .ctors)
 *(SORT(.ctors.*))
 *(.ctors)
                0x00005d78                __CTOR_END__ = .

.dtors          0x00005d78        0x0
                0x00005d78                __DTOR_LIST__ = .
 *crtbegin.o(.dtors)
 *crtbegin?.o(.dtors)
 *(EXCLUDE_FILE(*crtend.o *crtend?.o) .dtors)
 *(SORT(.dtors.*))
 *(.dtors)
                0x00005d78                __DTOR_END__ = .

.preinit_array  0x00005d78        0x0
                0x00005d78                PROVIDE (__preinit_array_start, .)
 *(.preinit_array*)
                0x00005d78                PROVIDE (__preinit_array_end, .)

.init_array     0x00005d78        0x4
                0x00005d78                PROVIDE (__init_array_start, .)
 *(SORT(.init_array.*))
 *(.init_array*)
 .init_array    0x00005d78        0x4 /opt/Freescale/KDS_3.0.0/toolchain/bin/../lib/gcc/arm-none-eabi/4.8.4/armv7e-m/fpu/crtbegin.o
                0x00005d7c                PROVIDE (__init_array_end, .)

.fini_array     0x00005d7c        0x4
                0x00005d7c                PROVIDE (__fini_array_start, .)
 *(SORT(.fini_array.*))
 *(.fini_array*)
 .fini_array    0x00005d7c        0x4 /opt/Freescale/KDS_3.0.0/toolchain/bin/../lib/gcc/arm-none-eabi/4.8.4/armv7e-m/fpu/crtbegin.o
                0x00005d80                PROVIDE (__fini_array_end, .)
                0x00005d80                __etext = .
                0x00005d80                __DATA_ROM = .

.interrupts_ram
                0x1fff0000      0x400
                0x1fff0000                . = ALIGN (0x4)
                0x1fff0000                __VECTOR_RAM__ = .
                0x1fff0000                __interrupts_ram_start__ = .
 *(.m_interrupts_ram)
                0x1fff0400                . = (. + M_VECTOR_RAM_SIZE)
 *fill*         0x1fff0000      0x400 
                0x1fff0400                . = ALIGN (0x4)
                0x1fff0400                __interrupts_ram_end__ = .
                0x00000000                __VECTOR_RAM = DEFINED (__ram_vector_table__)?__VECTOR_RAM__:ORIGIN (m_interrupts)
                0x00000000                __RAM_VECTOR_TABLE_SIZE_BYTES = DEFINED (__ram_vector_table__)?(__interrupts_ram_end__ - __interrupts_ram_start__):0x0

.data           0x1fff0400      0x2e8 load address 0x00005d80
                0x1fff0400                . = ALIGN (0x4)
                0x1fff0400                __DATA_RAM = .
                0x1fff0400                __data_start__ = .
 *(.data)
 *(.data*)
 .data.SystemCoreClock
                0x1fff0400        0x4 ./startup/system_MK64F12.o
                0x1fff0400                SystemCoreClock
 .data.g_process_times
                0x1fff0404        0x4 ./sources/keyboard.o
                0x1fff0404                g_process_times
 .data.hhkbInputPins
                0x1fff0408       0x24 ./sources/keyboard.o
                0x1fff0408                hhkbInputPins
 .data.qwertyMap
                0x1fff042c       0x40 ./sources/keyboard.o
                0x1fff042c                qwertyMap
 .data.lptmr0Config
                0x1fff046c        0x8 ./sources/keyboard.o
                0x1fff046c                lptmr0Config
 .data.hhkbOutputPins
                0x1fff0474       0x60 ./sources/keyboard.o
                0x1fff0474                hhkbOutputPins
 .data.g_ep     0x1fff04d4        0x8 ./sources/usb_descriptor.o
                0x1fff04d4                g_ep
 .data.g_string_desc_size
                0x1fff04dc        0x4 ./sources/usb_descriptor.o
                0x1fff04dc                g_string_desc_size
 .data.g_usb_str_0
                0x1fff04e0        0x4 ./sources/usb_descriptor.o
                0x1fff04e0                g_usb_str_0
 .data.g_config_descriptor
                0x1fff04e4       0x22 ./sources/usb_descriptor.o
                0x1fff04e4                g_config_descriptor
 .data.g_usb_str_n
                0x1fff0506       0x22 ./sources/usb_descriptor.o
                0x1fff0506                g_usb_str_n
 .data.g_usb_str_1
                0x1fff0528       0x3a ./sources/usb_descriptor.o
                0x1fff0528                g_usb_str_1
 *fill*         0x1fff0562        0x2 
 .data.g_std_descriptors
                0x1fff0564       0x24 ./sources/usb_descriptor.o
                0x1fff0564                g_std_descriptors
 .data.g_usb_desc_ep
                0x1fff0588        0x8 ./sources/usb_descriptor.o
                0x1fff0588                g_usb_desc_ep
 .data.g_usb_str_2
                0x1fff0590       0x28 ./sources/usb_descriptor.o
                0x1fff0590                g_usb_str_2
 .data.g_device_descriptor
                0x1fff05b8       0x12 ./sources/usb_descriptor.o
                0x1fff05b8                g_device_descriptor
 *fill*         0x1fff05ca        0x2 
 .data.g_languages
                0x1fff05cc        0xc ./sources/usb_descriptor.o
                0x1fff05cc                g_languages
 .data.g_desc_callback
                0x1fff05d8       0x14 ./sources/usb_descriptor.o
                0x1fff05d8                g_desc_callback
 .data.g_usb_language
                0x1fff05ec        0xc ./sources/usb_descriptor.o
                0x1fff05ec                g_usb_language
 .data.g_std_desc_size
                0x1fff05f8       0x24 ./sources/usb_descriptor.o
                0x1fff05f8                g_std_desc_size
 .data.g_report_descriptor
                0x1fff061c       0x3f ./sources/usb_descriptor.o
                0x1fff061c                g_report_descriptor
 *fill*         0x1fff065b        0x1 
 .data.g_string_descriptors
                0x1fff065c       0x10 ./sources/usb_descriptor.o
                0x1fff065c                g_string_descriptors
 .data.g_usb_dec_class
                0x1fff066c        0xc ./sources/usb_descriptor.o
                0x1fff066c                g_usb_dec_class
 .data.g_slowInternalRefClkFreq
                0x1fff0678        0x4 /opt/Freescale/KSDK_1.2.0/examples/frdmk64f/demo_apps/usb/device/hid/hhkb/bm/kds/../../../../../../../../../lib/ksdk_platform_lib/kds/K64F12/debug/libksdk_platform.a(fsl_mcg_hal.o)
                0x1fff0678                g_slowInternalRefClkFreq
 .data.g_fastInternalRefClkFreq
                0x1fff067c        0x4 /opt/Freescale/KSDK_1.2.0/examples/frdmk64f/demo_apps/usb/device/hid/hhkb/bm/kds/../../../../../../../../../lib/ksdk_platform_lib/kds/K64F12/debug/libksdk_platform.a(fsl_mcg_hal.o)
                0x1fff067c                g_fastInternalRefClkFreq
 .data.impure_data
                0x1fff0680       0x60 /opt/Freescale/KDS_3.0.0/toolchain/bin/../lib/gcc/arm-none-eabi/4.8.4/../../../../arm-none-eabi/lib/armv7e-m/fpu/libg_s.a(lib_a-impure.o)
 .data._impure_ptr
                0x1fff06e0        0x4 /opt/Freescale/KDS_3.0.0/toolchain/bin/../lib/gcc/arm-none-eabi/4.8.4/../../../../arm-none-eabi/lib/armv7e-m/fpu/libg_s.a(lib_a-impure.o)
                0x1fff06e0                _impure_ptr
 *(.jcr*)
 .jcr           0x1fff06e4        0x0 /opt/Freescale/KDS_3.0.0/toolchain/bin/../lib/gcc/arm-none-eabi/4.8.4/armv7e-m/fpu/crtbegin.o
 .jcr           0x1fff06e4        0x4 /opt/Freescale/KDS_3.0.0/toolchain/bin/../lib/gcc/arm-none-eabi/4.8.4/armv7e-m/fpu/crtend.o
                0x1fff06e8                . = ALIGN (0x4)
                0x1fff06e8                __data_end__ = .
                0x00006068                __DATA_END = (__DATA_ROM + (__data_end__ - __data_start__))

.igot.plt       0x1fff06e8        0x0 load address 0x00006068
 .igot.plt      0x00000000        0x0 /opt/Freescale/KDS_3.0.0/toolchain/bin/../lib/gcc/arm-none-eabi/4.8.4/armv7e-m/fpu/crtbegin.o

.bss            0x1fff0800      0xa8c load address 0x00006200
                0x1fff0800                . = ALIGN (0x4)
                0x1fff0800                __START_BSS = .
                0x1fff0800                __bss_start__ = .
 *(.bss)
 .bss           0x1fff0800       0x1c /opt/Freescale/KDS_3.0.0/toolchain/bin/../lib/gcc/arm-none-eabi/4.8.4/armv7e-m/fpu/crtbegin.o
 *(.bss*)
 .bss.s_debugConsole
                0x1fff081c       0x10 ./utilities/fsl_debug_console.o
 .bss.heap_end.5140
                0x1fff082c        0x4 ./utilities/fsl_misc_utilities.o
 .bss.keepMods  0x1fff0830       0x81 ./sources/keyboard.o
                0x1fff0830                keepMods
 .bss.newKeys   0x1fff08b1       0x81 ./sources/keyboard.o
                0x1fff08b1                newKeys
 .bss.prevBuffer
                0x1fff0932        0x8 ./sources/keyboard.o
                0x1fff0932                prevBuffer
 *fill*         0x1fff093a        0x2 
 .bss.lptmrState
                0x1fff093c        0x8 ./sources/keyboard.o
                0x1fff093c                lptmrState
 .bss.scanCounter
                0x1fff0944        0x4 ./sources/keyboard.o
                0x1fff0944                scanCounter
 .bss.g_keyboard
                0x1fff0948       0x14 ./sources/keyboard.o
                0x1fff0948                g_keyboard
 .bss.keepKeys  0x1fff095c       0x81 ./sources/keyboard.o
                0x1fff095c                keepKeys
 .bss.shouldWrite
                0x1fff09dd        0x1 ./sources/keyboard.o
                0x1fff09dd                shouldWrite
 .bss.newMods   0x1fff09de       0x81 ./sources/keyboard.o
                0x1fff09de                newMods
 .bss.g_alternate_interface
                0x1fff0a5f        0x1 ./sources/usb_descriptor.o
 .bss.g_usb_if  0x1fff0a60        0xc ./sources/usb_descriptor.o
 .bss.g_hid_class
                0x1fff0a6c       0x40 /opt/Freescale/KSDK_1.2.0/examples/frdmk64f/demo_apps/usb/device/hid/hhkb/bm/kds/../../../../../../../../../usb/usb_core/device/build/kds/usbd_sdk_frdmk64f_bm/debug/libusbd_bm.a(usb_hid.o)
                0x1fff0a6c                g_hid_class
 .bss.usb_class_object
                0x1fff0aac       0x10 /opt/Freescale/KSDK_1.2.0/examples/frdmk64f/demo_apps/usb/device/hid/hhkb/bm/kds/../../../../../../../../../usb/usb_core/device/build/kds/usbd_sdk_frdmk64f_bm/debug/libusbd_bm.a(usb_class.o)
 *fill*         0x1fff0abc        0x4 
 .bss.g_usb_dev_data
                0x1fff0ac0       0x60 /opt/Freescale/KSDK_1.2.0/examples/frdmk64f/demo_apps/usb/device/hid/hhkb/bm/kds/../../../../../../../../../usb/usb_core/device/build/kds/usbd_sdk_frdmk64f_bm/debug/libusbd_bm.a(usb_dev.o)
                0x1fff0ac0                g_usb_dev_data
 .bss.g_usb_dev
                0x1fff0b20       0xa4 /opt/Freescale/KSDK_1.2.0/examples/frdmk64f/demo_apps/usb/device/hid/hhkb/bm/kds/../../../../../../../../../usb/usb_core/device/build/kds/usbd_sdk_frdmk64f_bm/debug/libusbd_bm.a(usb_dev.o)
 .bss.g_khci_dev
                0x1fff0bc4       0xb4 /opt/Freescale/KSDK_1.2.0/examples/frdmk64f/demo_apps/usb/device/hid/hhkb/bm/kds/../../../../../../../../../usb/usb_core/device/build/kds/usbd_sdk_frdmk64f_bm/debug/libusbd_bm.a(khci_dev.o)
 .bss.g_khci_data
                0x1fff0c78      0x1a0 /opt/Freescale/KSDK_1.2.0/examples/frdmk64f/demo_apps/usb/device/hid/hhkb/bm/kds/../../../../../../../../../usb/usb_core/device/build/kds/usbd_sdk_frdmk64f_bm/debug/libusbd_bm.a(khci_dev.o)
 .bss.bdt       0x1fff0e18        0x4 /opt/Freescale/KSDK_1.2.0/examples/frdmk64f/demo_apps/usb/device/hid/hhkb/bm/kds/../../../../../../../../../usb/usb_core/device/build/kds/usbd_sdk_frdmk64f_bm/debug/libusbd_bm.a(khci_dev.o)
 *fill*         0x1fff0e1c      0x1e4 
 .bss.g_khci_bdt_buffer
                0x1fff1000      0x200 /opt/Freescale/KSDK_1.2.0/examples/frdmk64f/demo_apps/usb/device/hid/hhkb/bm/kds/../../../../../../../../../usb/usb_core/device/build/kds/usbd_sdk_frdmk64f_bm/debug/libusbd_bm.a(khci_dev.o)
                0x1fff1000                g_khci_bdt_buffer
 .bss._usb_khci_dev_swap_buf_ptr
                0x1fff1200        0x4 /opt/Freescale/KSDK_1.2.0/examples/frdmk64f/demo_apps/usb/device/hid/hhkb/bm/kds/../../../../../../../../../usb/usb_core/device/build/kds/usbd_sdk_frdmk64f_bm/debug/libusbd_bm.a(khci_dev.o)
 .bss.g_zero_pkt_send
                0x1fff1204        0x1 /opt/Freescale/KSDK_1.2.0/examples/frdmk64f/demo_apps/usb/device/hid/hhkb/bm/kds/../../../../../../../../../usb/usb_core/device/build/kds/usbd_sdk_frdmk64f_bm/debug/libusbd_bm.a(khci_dev.o)
 *fill*         0x1fff1205        0x3 
 .bss.lptmr_state_ptrs
                0x1fff1208        0x4 /opt/Freescale/KSDK_1.2.0/examples/frdmk64f/demo_apps/usb/device/hid/hhkb/bm/kds/../../../../../../../../../lib/ksdk_platform_lib/kds/K64F12/debug/libksdk_platform.a(fsl_lptmr_driver.o)
 .bss.g_curTask
                0x1fff120c        0x4 /opt/Freescale/KSDK_1.2.0/examples/frdmk64f/demo_apps/usb/device/hid/hhkb/bm/kds/../../../../../../../../../lib/ksdk_platform_lib/kds/K64F12/debug/libksdk_platform.a(fsl_os_abstraction_bm.o)
 .bss.g_freeTaskControlBlock
                0x1fff1210        0x4 /opt/Freescale/KSDK_1.2.0/examples/frdmk64f/demo_apps/usb/device/hid/hhkb/bm/kds/../../../../../../../../../lib/ksdk_platform_lib/kds/K64F12/debug/libksdk_platform.a(fsl_os_abstraction_bm.o)
 .bss.g_taskListHead
                0x1fff1214       0x10 /opt/Freescale/KSDK_1.2.0/examples/frdmk64f/demo_apps/usb/device/hid/hhkb/bm/kds/../../../../../../../../../lib/ksdk_platform_lib/kds/K64F12/debug/libksdk_platform.a(fsl_os_abstraction_bm.o)
 .bss.g_taskControlBlockPool
                0x1fff1224       0x50 /opt/Freescale/KSDK_1.2.0/examples/frdmk64f/demo_apps/usb/device/hid/hhkb/bm/kds/../../../../../../../../../lib/ksdk_platform_lib/kds/K64F12/debug/libksdk_platform.a(fsl_os_abstraction_bm.o)
 .bss.g_xtal0ClkFreq
                0x1fff1274        0x4 /opt/Freescale/KSDK_1.2.0/examples/frdmk64f/demo_apps/usb/device/hid/hhkb/bm/kds/../../../../../../../../../lib/ksdk_platform_lib/kds/K64F12/debug/libksdk_platform.a(fsl_mcg_hal.o)
                0x1fff1274                g_xtal0ClkFreq
 .bss.g_xtalRtcClkFreq
                0x1fff1278        0x4 /opt/Freescale/KSDK_1.2.0/examples/frdmk64f/demo_apps/usb/device/hid/hhkb/bm/kds/../../../../../../../../../lib/ksdk_platform_lib/kds/K64F12/debug/libksdk_platform.a(fsl_mcg_hal.o)
                0x1fff1278                g_xtalRtcClkFreq
 .bss.g_interruptDisableCount
                0x1fff127c        0x4 /opt/Freescale/KSDK_1.2.0/examples/frdmk64f/demo_apps/usb/device/hid/hhkb/bm/kds/../../../../../../../../../lib/ksdk_platform_lib/kds/K64F12/debug/libksdk_platform.a(fsl_interrupt_manager.o)
                0x1fff127c                g_interruptDisableCount
 .bss.__malloc_sbrk_start
                0x1fff1280        0x4 /opt/Freescale/KDS_3.0.0/toolchain/bin/../lib/gcc/arm-none-eabi/4.8.4/../../../../arm-none-eabi/lib/armv7e-m/fpu/libg_s.a(lib_a-nano-mallocr.o)
                0x1fff1280                __malloc_sbrk_start
 .bss.__malloc_free_list
                0x1fff1284        0x4 /opt/Freescale/KDS_3.0.0/toolchain/bin/../lib/gcc/arm-none-eabi/4.8.4/../../../../arm-none-eabi/lib/armv7e-m/fpu/libg_s.a(lib_a-nano-mallocr.o)
                0x1fff1284                __malloc_free_list
 *(COMMON)
 COMMON         0x1fff1288        0x4 /opt/Freescale/KDS_3.0.0/toolchain/bin/../lib/gcc/arm-none-eabi/4.8.4/../../../../arm-none-eabi/lib/armv7e-m/fpu/libg_s.a(lib_a-reent.o)
                0x1fff1288                errno
                0x1fff128c                . = ALIGN (0x4)
                0x1fff128c                __bss_end__ = .
                0x1fff128c                __END_BSS = .

.heap           0x20000000      0x400
                0x20000000                . = ALIGN (0x8)
                0x20000000                __end__ = .
                0x20000000                PROVIDE (end, .)
                0x20000000                __HeapBase = .
                0x20000400                . = (. + HEAP_SIZE)
 *fill*         0x20000000      0x400 
                0x20000400                __HeapLimit = .

.stack          0x20000400     0x1000
                0x20000400                . = ALIGN (0x8)
                0x20001400                . = (. + STACK_SIZE)
 *fill*         0x20000400     0x1000 
                0x20030000                __StackTop = (ORIGIN (m_data_2) + 0x30000)
                0x2002f000                __StackLimit = (__StackTop - STACK_SIZE)
                0x20030000                PROVIDE (__stack, __StackTop)

.ARM.attributes
                0x00000000       0x30
 *(.ARM.attributes)
 .ARM.attributes
                0x00000000       0x22 /opt/Freescale/KDS_3.0.0/toolchain/bin/../lib/gcc/arm-none-eabi/4.8.4/armv7e-m/fpu/crti.o
 .ARM.attributes
                0x00000022       0x34 /opt/Freescale/KDS_3.0.0/toolchain/bin/../lib/gcc/arm-none-eabi/4.8.4/armv7e-m/fpu/crtbegin.o
 .ARM.attributes
                0x00000056       0x20 /opt/Freescale/KDS_3.0.0/toolchain/bin/../lib/gcc/arm-none-eabi/4.8.4/../../../../arm-none-eabi/lib/armv7e-m/fpu/crt0.o
 .ARM.attributes
                0x00000076       0x39 ./utilities/fsl_debug_console.o
 .ARM.attributes
                0x000000af       0x39 ./utilities/fsl_misc_utilities.o
 .ARM.attributes
                0x000000e8       0x39 ./utilities/print_scan.o
 .ARM.attributes
                0x00000121       0x39 ./startup/startup.o
 .ARM.attributes
                0x0000015a       0x1f ./startup/startup_MK64F12.o
 .ARM.attributes
                0x00000179       0x39 ./startup/system_MK64F12.o
 .ARM.attributes
                0x000001b2       0x39 ./sources/keyboard.o
 .ARM.attributes
                0x000001eb       0x39 ./sources/usb_descriptor.o
 .ARM.attributes
                0x00000224       0x39 ./board/board.o
 .ARM.attributes
                0x0000025d       0x39 ./board/gpio_pins.o
 .ARM.attributes
                0x00000296       0x39 ./board/hardware_init.o
 .ARM.attributes
                0x000002cf       0x39 ./board/pin_mux.o
 .ARM.attributes
                0x00000308       0x39 /opt/Freescale/KSDK_1.2.0/examples/frdmk64f/demo_apps/usb/device/hid/hhkb/bm/kds/../../../../../../../../../usb/usb_core/device/build/kds/usbd_sdk_frdmk64f_bm/debug/libusbd_bm.a(usb_hid.o)
 .ARM.attributes
                0x00000341       0x39 /opt/Freescale/KSDK_1.2.0/examples/frdmk64f/demo_apps/usb/device/hid/hhkb/bm/kds/../../../../../../../../../usb/usb_core/device/build/kds/usbd_sdk_frdmk64f_bm/debug/libusbd_bm.a(usb_class.o)
 .ARM.attributes
                0x0000037a       0x39 /opt/Freescale/KSDK_1.2.0/examples/frdmk64f/demo_apps/usb/device/hid/hhkb/bm/kds/../../../../../../../../../usb/usb_core/device/build/kds/usbd_sdk_frdmk64f_bm/debug/libusbd_bm.a(usb_dev.o)
 .ARM.attributes
                0x000003b3       0x39 /opt/Freescale/KSDK_1.2.0/examples/frdmk64f/demo_apps/usb/device/hid/hhkb/bm/kds/../../../../../../../../../usb/usb_core/device/build/kds/usbd_sdk_frdmk64f_bm/debug/libusbd_bm.a(usb_framework.o)
 .ARM.attributes
                0x000003ec       0x39 /opt/Freescale/KSDK_1.2.0/examples/frdmk64f/demo_apps/usb/device/hid/hhkb/bm/kds/../../../../../../../../../usb/usb_core/device/build/kds/usbd_sdk_frdmk64f_bm/debug/libusbd_bm.a(usb_dev_bsp.o)
 .ARM.attributes
                0x00000425       0x39 /opt/Freescale/KSDK_1.2.0/examples/frdmk64f/demo_apps/usb/device/hid/hhkb/bm/kds/../../../../../../../../../usb/usb_core/device/build/kds/usbd_sdk_frdmk64f_bm/debug/libusbd_bm.a(adapter_sdk.o)
 .ARM.attributes
                0x0000045e       0x39 /opt/Freescale/KSDK_1.2.0/examples/frdmk64f/demo_apps/usb/device/hid/hhkb/bm/kds/../../../../../../../../../usb/usb_core/device/build/kds/usbd_sdk_frdmk64f_bm/debug/libusbd_bm.a(device_khci_interface.o)
 .ARM.attributes
                0x00000497       0x39 /opt/Freescale/KSDK_1.2.0/examples/frdmk64f/demo_apps/usb/device/hid/hhkb/bm/kds/../../../../../../../../../usb/usb_core/device/build/kds/usbd_sdk_frdmk64f_bm/debug/libusbd_bm.a(khci_dev.o)
 .ARM.attributes
                0x000004d0       0x39 /opt/Freescale/KSDK_1.2.0/examples/frdmk64f/demo_apps/usb/device/hid/hhkb/bm/kds/../../../../../../../../../lib/ksdk_platform_lib/kds/K64F12/debug/libksdk_platform.a(fsl_uart_hal.o)
 .ARM.attributes
                0x00000509       0x39 /opt/Freescale/KSDK_1.2.0/examples/frdmk64f/demo_apps/usb/device/hid/hhkb/bm/kds/../../../../../../../../../lib/ksdk_platform_lib/kds/K64F12/debug/libksdk_platform.a(fsl_sim_hal_MK64F12.o)
 .ARM.attributes
                0x00000542       0x39 /opt/Freescale/KSDK_1.2.0/examples/frdmk64f/demo_apps/usb/device/hid/hhkb/bm/kds/../../../../../../../../../lib/ksdk_platform_lib/kds/K64F12/debug/libksdk_platform.a(fsl_lptmr_driver.o)
 .ARM.attributes
                0x0000057b       0x39 /opt/Freescale/KSDK_1.2.0/examples/frdmk64f/demo_apps/usb/device/hid/hhkb/bm/kds/../../../../../../../../../lib/ksdk_platform_lib/kds/K64F12/debug/libksdk_platform.a(fsl_gpio_driver.o)
 .ARM.attributes
                0x000005b4       0x39 /opt/Freescale/KSDK_1.2.0/examples/frdmk64f/demo_apps/usb/device/hid/hhkb/bm/kds/../../../../../../../../../lib/ksdk_platform_lib/kds/K64F12/debug/libksdk_platform.a(fsl_clock_MK64F12.o)
 .ARM.attributes
                0x000005ed       0x39 /opt/Freescale/KSDK_1.2.0/examples/frdmk64f/demo_apps/usb/device/hid/hhkb/bm/kds/../../../../../../../../../lib/ksdk_platform_lib/kds/K64F12/debug/libksdk_platform.a(fsl_clock_manager.o)
 .ARM.attributes
                0x00000626       0x39 /opt/Freescale/KSDK_1.2.0/examples/frdmk64f/demo_apps/usb/device/hid/hhkb/bm/kds/../../../../../../../../../lib/ksdk_platform_lib/kds/K64F12/debug/libksdk_platform.a(fsl_clock_manager_common.o)
 .ARM.attributes
                0x0000065f       0x39 /opt/Freescale/KSDK_1.2.0/examples/frdmk64f/demo_apps/usb/device/hid/hhkb/bm/kds/../../../../../../../../../lib/ksdk_platform_lib/kds/K64F12/debug/libksdk_platform.a(fsl_os_abstraction_bm.o)
 .ARM.attributes
                0x00000698       0x39 /opt/Freescale/KSDK_1.2.0/examples/frdmk64f/demo_apps/usb/device/hid/hhkb/bm/kds/../../../../../../../../../lib/ksdk_platform_lib/kds/K64F12/debug/libksdk_platform.a(fsl_rtc_common.o)
 .ARM.attributes
                0x000006d1       0x39 /opt/Freescale/KSDK_1.2.0/examples/frdmk64f/demo_apps/usb/device/hid/hhkb/bm/kds/../../../../../../../../../lib/ksdk_platform_lib/kds/K64F12/debug/libksdk_platform.a(fsl_osc_hal.o)
 .ARM.attributes
                0x0000070a       0x39 /opt/Freescale/KSDK_1.2.0/examples/frdmk64f/demo_apps/usb/device/hid/hhkb/bm/kds/../../../../../../../../../lib/ksdk_platform_lib/kds/K64F12/debug/libksdk_platform.a(fsl_mcg_hal.o)
 .ARM.attributes
                0x00000743       0x39 /opt/Freescale/KSDK_1.2.0/examples/frdmk64f/demo_apps/usb/device/hid/hhkb/bm/kds/../../../../../../../../../lib/ksdk_platform_lib/kds/K64F12/debug/libksdk_platform.a(fsl_mcg_hal_modes.o)
 .ARM.attributes
                0x0000077c       0x39 /opt/Freescale/KSDK_1.2.0/examples/frdmk64f/demo_apps/usb/device/hid/hhkb/bm/kds/../../../../../../../../../lib/ksdk_platform_lib/kds/K64F12/debug/libksdk_platform.a(fsl_lptmr_hal.o)
 .ARM.attributes
                0x000007b5       0x39 /opt/Freescale/KSDK_1.2.0/examples/frdmk64f/demo_apps/usb/device/hid/hhkb/bm/kds/../../../../../../../../../lib/ksdk_platform_lib/kds/K64F12/debug/libksdk_platform.a(fsl_lptmr_common.o)
 .ARM.attributes
                0x000007ee       0x39 /opt/Freescale/KSDK_1.2.0/examples/frdmk64f/demo_apps/usb/device/hid/hhkb/bm/kds/../../../../../../../../../lib/ksdk_platform_lib/kds/K64F12/debug/libksdk_platform.a(fsl_interrupt_manager.o)
 .ARM.attributes
                0x00000827       0x39 /opt/Freescale/KSDK_1.2.0/examples/frdmk64f/demo_apps/usb/device/hid/hhkb/bm/kds/../../../../../../../../../lib/ksdk_platform_lib/kds/K64F12/debug/libksdk_platform.a(fsl_gpio_hal.o)
 .ARM.attributes
                0x00000860       0x39 /opt/Freescale/KSDK_1.2.0/examples/frdmk64f/demo_apps/usb/device/hid/hhkb/bm/kds/../../../../../../../../../lib/ksdk_platform_lib/kds/K64F12/debug/libksdk_platform.a(fsl_gpio_common.o)
 .ARM.attributes
                0x00000899       0x34 /opt/Freescale/KDS_3.0.0/toolchain/bin/../lib/gcc/arm-none-eabi/4.8.4/../../../../arm-none-eabi/lib/armv7e-m/fpu/libg_s.a(lib_a-assert.o)
 .ARM.attributes
                0x000008cd       0x34 /opt/Freescale/KDS_3.0.0/toolchain/bin/../lib/gcc/arm-none-eabi/4.8.4/../../../../arm-none-eabi/lib/armv7e-m/fpu/libg_s.a(lib_a-calloc.o)
 .ARM.attributes
                0x00000901       0x34 /opt/Freescale/KDS_3.0.0/toolchain/bin/../lib/gcc/arm-none-eabi/4.8.4/../../../../arm-none-eabi/lib/armv7e-m/fpu/libg_s.a(lib_a-errno.o)
 .ARM.attributes
                0x00000935       0x34 /opt/Freescale/KDS_3.0.0/toolchain/bin/../lib/gcc/arm-none-eabi/4.8.4/../../../../arm-none-eabi/lib/armv7e-m/fpu/libg_s.a(lib_a-exit.o)
 .ARM.attributes
                0x00000969       0x34 /opt/Freescale/KDS_3.0.0/toolchain/bin/../lib/gcc/arm-none-eabi/4.8.4/../../../../arm-none-eabi/lib/armv7e-m/fpu/libg_s.a(lib_a-fprintf.o)
 .ARM.attributes
                0x0000099d       0x34 /opt/Freescale/KDS_3.0.0/toolchain/bin/../lib/gcc/arm-none-eabi/4.8.4/../../../../arm-none-eabi/lib/armv7e-m/fpu/libg_s.a(lib_a-impure.o)
 .ARM.attributes
                0x000009d1       0x34 /opt/Freescale/KDS_3.0.0/toolchain/bin/../lib/gcc/arm-none-eabi/4.8.4/../../../../arm-none-eabi/lib/armv7e-m/fpu/libg_s.a(lib_a-init.o)
 .ARM.attributes
                0x00000a05       0x34 /opt/Freescale/KDS_3.0.0/toolchain/bin/../lib/gcc/arm-none-eabi/4.8.4/../../../../arm-none-eabi/lib/armv7e-m/fpu/libg_s.a(lib_a-malloc.o)
 .ARM.attributes
                0x00000a39       0x34 /opt/Freescale/KDS_3.0.0/toolchain/bin/../lib/gcc/arm-none-eabi/4.8.4/../../../../arm-none-eabi/lib/armv7e-m/fpu/libg_s.a(lib_a-memcpy-stub.o)
 .ARM.attributes
                0x00000a6d       0x34 /opt/Freescale/KDS_3.0.0/toolchain/bin/../lib/gcc/arm-none-eabi/4.8.4/../../../../arm-none-eabi/lib/armv7e-m/fpu/libg_s.a(lib_a-memset.o)
 .ARM.attributes
                0x00000aa1       0x34 /opt/Freescale/KDS_3.0.0/toolchain/bin/../lib/gcc/arm-none-eabi/4.8.4/../../../../arm-none-eabi/lib/armv7e-m/fpu/libg_s.a(lib_a-nano-callocr.o)
 .ARM.attributes
                0x00000ad5       0x34 /opt/Freescale/KDS_3.0.0/toolchain/bin/../lib/gcc/arm-none-eabi/4.8.4/../../../../arm-none-eabi/lib/armv7e-m/fpu/libg_s.a(lib_a-nano-freer.o)
 .ARM.attributes
                0x00000b09       0x34 /opt/Freescale/KDS_3.0.0/toolchain/bin/../lib/gcc/arm-none-eabi/4.8.4/../../../../arm-none-eabi/lib/armv7e-m/fpu/libg_s.a(lib_a-nano-mallocr.o)
 .ARM.attributes
                0x00000b3d       0x34 /opt/Freescale/KDS_3.0.0/toolchain/bin/../lib/gcc/arm-none-eabi/4.8.4/../../../../arm-none-eabi/lib/armv7e-m/fpu/libg_s.a(lib_a-sbrkr.o)
 .ARM.attributes
                0x00000b71       0x34 /opt/Freescale/KDS_3.0.0/toolchain/bin/../lib/gcc/arm-none-eabi/4.8.4/../../../../arm-none-eabi/lib/armv7e-m/fpu/libg_s.a(lib_a-strlen.o)
 .ARM.attributes
                0x00000ba5       0x34 /opt/Freescale/KDS_3.0.0/toolchain/bin/../lib/gcc/arm-none-eabi/4.8.4/../../../../arm-none-eabi/lib/armv7e-m/fpu/libg_s.a(lib_a-vfprintf.o)
 .ARM.attributes
                0x00000bd9       0x34 /opt/Freescale/KDS_3.0.0/toolchain/bin/../lib/gcc/arm-none-eabi/4.8.4/../../../../arm-none-eabi/lib/armv7e-m/fpu/libg_s.a(lib_a-vfprintf_i.o)
 .ARM.attributes
                0x00000c0d       0x34 /opt/Freescale/KDS_3.0.0/toolchain/bin/../lib/gcc/arm-none-eabi/4.8.4/../../../../arm-none-eabi/lib/armv7e-m/fpu/libg_s.a(lib_a-wbuf.o)
 .ARM.attributes
                0x00000c41       0x34 /opt/Freescale/KDS_3.0.0/toolchain/bin/../lib/gcc/arm-none-eabi/4.8.4/../../../../arm-none-eabi/lib/armv7e-m/fpu/libg_s.a(lib_a-wsetup.o)
 .ARM.attributes
                0x00000c75       0x34 /opt/Freescale/KDS_3.0.0/toolchain/bin/../lib/gcc/arm-none-eabi/4.8.4/../../../../arm-none-eabi/lib/armv7e-m/fpu/libg_s.a(lib_a-abort.o)
 .ARM.attributes
                0x00000ca9       0x34 /opt/Freescale/KDS_3.0.0/toolchain/bin/../lib/gcc/arm-none-eabi/4.8.4/../../../../arm-none-eabi/lib/armv7e-m/fpu/libg_s.a(lib_a-fflush.o)
 .ARM.attributes
                0x00000cdd       0x34 /opt/Freescale/KDS_3.0.0/toolchain/bin/../lib/gcc/arm-none-eabi/4.8.4/../../../../arm-none-eabi/lib/armv7e-m/fpu/libg_s.a(lib_a-findfp.o)
 .ARM.attributes
                0x00000d11       0x34 /opt/Freescale/KDS_3.0.0/toolchain/bin/../lib/gcc/arm-none-eabi/4.8.4/../../../../arm-none-eabi/lib/armv7e-m/fpu/libg_s.a(lib_a-makebuf.o)
 .ARM.attributes
                0x00000d45       0x34 /opt/Freescale/KDS_3.0.0/toolchain/bin/../lib/gcc/arm-none-eabi/4.8.4/../../../../arm-none-eabi/lib/armv7e-m/fpu/libg_s.a(lib_a-memchr-stub.o)
 .ARM.attributes
                0x00000d79       0x34 /opt/Freescale/KDS_3.0.0/toolchain/bin/../lib/gcc/arm-none-eabi/4.8.4/../../../../arm-none-eabi/lib/armv7e-m/fpu/libg_s.a(lib_a-reent.o)
 .ARM.attributes
                0x00000dad       0x34 /opt/Freescale/KDS_3.0.0/toolchain/bin/../lib/gcc/arm-none-eabi/4.8.4/../../../../arm-none-eabi/lib/armv7e-m/fpu/libg_s.a(lib_a-signal.o)
 .ARM.attributes
                0x00000de1       0x34 /opt/Freescale/KDS_3.0.0/toolchain/bin/../lib/gcc/arm-none-eabi/4.8.4/../../../../arm-none-eabi/lib/armv7e-m/fpu/libg_s.a(lib_a-signalr.o)
 .ARM.attributes
                0x00000e15       0x34 /opt/Freescale/KDS_3.0.0/toolchain/bin/../lib/gcc/arm-none-eabi/4.8.4/../../../../arm-none-eabi/lib/armv7e-m/fpu/libg_s.a(lib_a-stdio.o)
 .ARM.attributes
                0x00000e49       0x34 /opt/Freescale/KDS_3.0.0/toolchain/bin/../lib/gcc/arm-none-eabi/4.8.4/../../../../arm-none-eabi/lib/armv7e-m/fpu/libg_s.a(lib_a-writer.o)
 .ARM.attributes
                0x00000e7d       0x34 /opt/Freescale/KDS_3.0.0/toolchain/bin/../lib/gcc/arm-none-eabi/4.8.4/../../../../arm-none-eabi/lib/armv7e-m/fpu/libg_s.a(lib_a-closer.o)
 .ARM.attributes
                0x00000eb1       0x34 /opt/Freescale/KDS_3.0.0/toolchain/bin/../lib/gcc/arm-none-eabi/4.8.4/../../../../arm-none-eabi/lib/armv7e-m/fpu/libg_s.a(lib_a-fstatr.o)
 .ARM.attributes
                0x00000ee5       0x34 /opt/Freescale/KDS_3.0.0/toolchain/bin/../lib/gcc/arm-none-eabi/4.8.4/../../../../arm-none-eabi/lib/armv7e-m/fpu/libg_s.a(lib_a-isattyr.o)
 .ARM.attributes
                0x00000f19       0x34 /opt/Freescale/KDS_3.0.0/toolchain/bin/../lib/gcc/arm-none-eabi/4.8.4/../../../../arm-none-eabi/lib/armv7e-m/fpu/libg_s.a(lib_a-lseekr.o)
 .ARM.attributes
                0x00000f4d       0x34 /opt/Freescale/KDS_3.0.0/toolchain/bin/../lib/gcc/arm-none-eabi/4.8.4/../../../../arm-none-eabi/lib/armv7e-m/fpu/libg_s.a(lib_a-readr.o)
 .ARM.attributes
                0x00000f81       0x34 /opt/Freescale/KDS_3.0.0/toolchain/bin/../lib/gcc/arm-none-eabi/4.8.4/../../../../arm-none-eabi/lib/armv7e-m/fpu/libnosys.a(close.o)
 .ARM.attributes
                0x00000fb5       0x34 /opt/Freescale/KDS_3.0.0/toolchain/bin/../lib/gcc/arm-none-eabi/4.8.4/../../../../arm-none-eabi/lib/armv7e-m/fpu/libnosys.a(fstat.o)
 .ARM.attributes
                0x00000fe9       0x34 /opt/Freescale/KDS_3.0.0/toolchain/bin/../lib/gcc/arm-none-eabi/4.8.4/../../../../arm-none-eabi/lib/armv7e-m/fpu/libnosys.a(getpid.o)
 .ARM.attributes
                0x0000101d       0x34 /opt/Freescale/KDS_3.0.0/toolchain/bin/../lib/gcc/arm-none-eabi/4.8.4/../../../../arm-none-eabi/lib/armv7e-m/fpu/libnosys.a(isatty.o)
 .ARM.attributes
                0x00001051       0x34 /opt/Freescale/KDS_3.0.0/toolchain/bin/../lib/gcc/arm-none-eabi/4.8.4/../../../../arm-none-eabi/lib/armv7e-m/fpu/libnosys.a(kill.o)
 .ARM.attributes
                0x00001085       0x34 /opt/Freescale/KDS_3.0.0/toolchain/bin/../lib/gcc/arm-none-eabi/4.8.4/../../../../arm-none-eabi/lib/armv7e-m/fpu/libnosys.a(lseek.o)
 .ARM.attributes
                0x000010b9       0x34 /opt/Freescale/KDS_3.0.0/toolchain/bin/../lib/gcc/arm-none-eabi/4.8.4/../../../../arm-none-eabi/lib/armv7e-m/fpu/libnosys.a(_exit.o)
 .ARM.attributes
                0x000010ed       0x34 /opt/Freescale/KDS_3.0.0/toolchain/bin/../lib/gcc/arm-none-eabi/4.8.4/armv7e-m/fpu/crtend.o
 .ARM.attributes
                0x00001121       0x22 /opt/Freescale/KDS_3.0.0/toolchain/bin/../lib/gcc/arm-none-eabi/4.8.4/armv7e-m/fpu/crtn.o
                0x00000001                ASSERT ((__StackLimit >= __HeapLimit), region m_data_2 overflowed with stack and heap)
OUTPUT(dev_hid_keyboard_frdmk64f_bm_frdmk64f.elf elf32-littlearm)

.debug_info     0x00000000    0x1f416
 .debug_info    0x00000000      0xb5d ./utilities/fsl_debug_console.o
 .debug_info    0x00000b5d      0x1ce ./utilities/fsl_misc_utilities.o
 .debug_info    0x00000d2b      0x970 ./utilities/print_scan.o
 .debug_info    0x0000169b      0x37d ./startup/startup.o
 .debug_info    0x00001a18       0xd0 ./startup/startup_MK64F12.o
 .debug_info    0x00001ae8      0x5e2 ./startup/system_MK64F12.o
 .debug_info    0x000020ca     0x157a ./sources/keyboard.o
 .debug_info    0x00003644      0xe51 ./sources/usb_descriptor.o
 .debug_info    0x00004495      0xa5a ./board/board.o
 .debug_info    0x00004eef      0x2f9 ./board/gpio_pins.o
 .debug_info    0x000051e8      0x173 ./board/hardware_init.o
 .debug_info    0x0000535b     0x226b ./board/pin_mux.o
 .debug_info    0x000075c6     0x10e8 /opt/Freescale/KSDK_1.2.0/examples/frdmk64f/demo_apps/usb/device/hid/hhkb/bm/kds/../../../../../../../../../usb/usb_core/device/build/kds/usbd_sdk_frdmk64f_bm/debug/libusbd_bm.a(usb_hid.o)
 .debug_info    0x000086ae      0x70a /opt/Freescale/KSDK_1.2.0/examples/frdmk64f/demo_apps/usb/device/hid/hhkb/bm/kds/../../../../../../../../../usb/usb_core/device/build/kds/usbd_sdk_frdmk64f_bm/debug/libusbd_bm.a(usb_class.o)
 .debug_info    0x00008db8     0x175e /opt/Freescale/KSDK_1.2.0/examples/frdmk64f/demo_apps/usb/device/hid/hhkb/bm/kds/../../../../../../../../../usb/usb_core/device/build/kds/usbd_sdk_frdmk64f_bm/debug/libusbd_bm.a(usb_dev.o)
 .debug_info    0x0000a516      0xfd7 /opt/Freescale/KSDK_1.2.0/examples/frdmk64f/demo_apps/usb/device/hid/hhkb/bm/kds/../../../../../../../../../usb/usb_core/device/build/kds/usbd_sdk_frdmk64f_bm/debug/libusbd_bm.a(usb_framework.o)
 .debug_info    0x0000b4ed     0x14a9 /opt/Freescale/KSDK_1.2.0/examples/frdmk64f/demo_apps/usb/device/hid/hhkb/bm/kds/../../../../../../../../../usb/usb_core/device/build/kds/usbd_sdk_frdmk64f_bm/debug/libusbd_bm.a(usb_dev_bsp.o)
 .debug_info    0x0000c996     0x124d /opt/Freescale/KSDK_1.2.0/examples/frdmk64f/demo_apps/usb/device/hid/hhkb/bm/kds/../../../../../../../../../usb/usb_core/device/build/kds/usbd_sdk_frdmk64f_bm/debug/libusbd_bm.a(adapter_sdk.o)
 .debug_info    0x0000dbe3      0x3af /opt/Freescale/KSDK_1.2.0/examples/frdmk64f/demo_apps/usb/device/hid/hhkb/bm/kds/../../../../../../../../../usb/usb_core/device/build/kds/usbd_sdk_frdmk64f_bm/debug/libusbd_bm.a(device_khci_interface.o)
 .debug_info    0x0000df92     0x2787 /opt/Freescale/KSDK_1.2.0/examples/frdmk64f/demo_apps/usb/device/hid/hhkb/bm/kds/../../../../../../../../../usb/usb_core/device/build/kds/usbd_sdk_frdmk64f_bm/debug/libusbd_bm.a(khci_dev.o)
 .debug_info    0x00010719      0xfb3 /opt/Freescale/KSDK_1.2.0/examples/frdmk64f/demo_apps/usb/device/hid/hhkb/bm/kds/../../../../../../../../../lib/ksdk_platform_lib/kds/K64F12/debug/libksdk_platform.a(fsl_uart_hal.o)
 .debug_info    0x000116cc     0x1040 /opt/Freescale/KSDK_1.2.0/examples/frdmk64f/demo_apps/usb/device/hid/hhkb/bm/kds/../../../../../../../../../lib/ksdk_platform_lib/kds/K64F12/debug/libksdk_platform.a(fsl_sim_hal_MK64F12.o)
 .debug_info    0x0001270c     0x1763 /opt/Freescale/KSDK_1.2.0/examples/frdmk64f/demo_apps/usb/device/hid/hhkb/bm/kds/../../../../../../../../../lib/ksdk_platform_lib/kds/K64F12/debug/libksdk_platform.a(fsl_lptmr_driver.o)
 .debug_info    0x00013e6f     0x190a /opt/Freescale/KSDK_1.2.0/examples/frdmk64f/demo_apps/usb/device/hid/hhkb/bm/kds/../../../../../../../../../lib/ksdk_platform_lib/kds/K64F12/debug/libksdk_platform.a(fsl_gpio_driver.o)
 .debug_info    0x00015779     0x26ef /opt/Freescale/KSDK_1.2.0/examples/frdmk64f/demo_apps/usb/device/hid/hhkb/bm/kds/../../../../../../../../../lib/ksdk_platform_lib/kds/K64F12/debug/libksdk_platform.a(fsl_clock_MK64F12.o)
 .debug_info    0x00017e68     0x1ca0 /opt/Freescale/KSDK_1.2.0/examples/frdmk64f/demo_apps/usb/device/hid/hhkb/bm/kds/../../../../../../../../../lib/ksdk_platform_lib/kds/K64F12/debug/libksdk_platform.a(fsl_clock_manager.o)
 .debug_info    0x00019b08      0x439 /opt/Freescale/KSDK_1.2.0/examples/frdmk64f/demo_apps/usb/device/hid/hhkb/bm/kds/../../../../../../../../../lib/ksdk_platform_lib/kds/K64F12/debug/libksdk_platform.a(fsl_clock_manager_common.o)
 .debug_info    0x00019f41     0x1e7e /opt/Freescale/KSDK_1.2.0/examples/frdmk64f/demo_apps/usb/device/hid/hhkb/bm/kds/../../../../../../../../../lib/ksdk_platform_lib/kds/K64F12/debug/libksdk_platform.a(fsl_os_abstraction_bm.o)
 .debug_info    0x0001bdbf      0x437 /opt/Freescale/KSDK_1.2.0/examples/frdmk64f/demo_apps/usb/device/hid/hhkb/bm/kds/../../../../../../../../../lib/ksdk_platform_lib/kds/K64F12/debug/libksdk_platform.a(fsl_rtc_common.o)
 .debug_info    0x0001c1f6      0x10b /opt/Freescale/KSDK_1.2.0/examples/frdmk64f/demo_apps/usb/device/hid/hhkb/bm/kds/../../../../../../../../../lib/ksdk_platform_lib/kds/K64F12/debug/libksdk_platform.a(fsl_osc_hal.o)
 .debug_info    0x0001c301      0xdbd /opt/Freescale/KSDK_1.2.0/examples/frdmk64f/demo_apps/usb/device/hid/hhkb/bm/kds/../../../../../../../../../lib/ksdk_platform_lib/kds/K64F12/debug/libksdk_platform.a(fsl_mcg_hal.o)
 .debug_info    0x0001d0be      0xf11 /opt/Freescale/KSDK_1.2.0/examples/frdmk64f/demo_apps/usb/device/hid/hhkb/bm/kds/../../../../../../../../../lib/ksdk_platform_lib/kds/K64F12/debug/libksdk_platform.a(fsl_mcg_hal_modes.o)
 .debug_info    0x0001dfcf      0x518 /opt/Freescale/KSDK_1.2.0/examples/frdmk64f/demo_apps/usb/device/hid/hhkb/bm/kds/../../../../../../../../../lib/ksdk_platform_lib/kds/K64F12/debug/libksdk_platform.a(fsl_lptmr_hal.o)
 .debug_info    0x0001e4e7      0x3aa /opt/Freescale/KSDK_1.2.0/examples/frdmk64f/demo_apps/usb/device/hid/hhkb/bm/kds/../../../../../../../../../lib/ksdk_platform_lib/kds/K64F12/debug/libksdk_platform.a(fsl_lptmr_common.o)
 .debug_info    0x0001e891      0x441 /opt/Freescale/KSDK_1.2.0/examples/frdmk64f/demo_apps/usb/device/hid/hhkb/bm/kds/../../../../../../../../../lib/ksdk_platform_lib/kds/K64F12/debug/libksdk_platform.a(fsl_interrupt_manager.o)
 .debug_info    0x0001ecd2      0x284 /opt/Freescale/KSDK_1.2.0/examples/frdmk64f/demo_apps/usb/device/hid/hhkb/bm/kds/../../../../../../../../../lib/ksdk_platform_lib/kds/K64F12/debug/libksdk_platform.a(fsl_gpio_hal.o)
 .debug_info    0x0001ef56      0x4c0 /opt/Freescale/KSDK_1.2.0/examples/frdmk64f/demo_apps/usb/device/hid/hhkb/bm/kds/../../../../../../../../../lib/ksdk_platform_lib/kds/K64F12/debug/libksdk_platform.a(fsl_gpio_common.o)

.debug_abbrev   0x00000000     0x51e6
 .debug_abbrev  0x00000000      0x349 ./utilities/fsl_debug_console.o
 .debug_abbrev  0x00000349      0x124 ./utilities/fsl_misc_utilities.o
 .debug_abbrev  0x0000046d      0x286 ./utilities/print_scan.o
 .debug_abbrev  0x000006f3      0x104 ./startup/startup.o
 .debug_abbrev  0x000007f7       0x14 ./startup/startup_MK64F12.o
 .debug_abbrev  0x0000080b      0x117 ./startup/system_MK64F12.o
 .debug_abbrev  0x00000922      0x3a2 ./sources/keyboard.o
 .debug_abbrev  0x00000cc4      0x26f ./sources/usb_descriptor.o
 .debug_abbrev  0x00000f33      0x23d ./board/board.o
 .debug_abbrev  0x00001170       0xab ./board/gpio_pins.o
 .debug_abbrev  0x0000121b       0xf8 ./board/hardware_init.o
 .debug_abbrev  0x00001313      0x229 ./board/pin_mux.o
 .debug_abbrev  0x0000153c      0x32f /opt/Freescale/KSDK_1.2.0/examples/frdmk64f/demo_apps/usb/device/hid/hhkb/bm/kds/../../../../../../../../../usb/usb_core/device/build/kds/usbd_sdk_frdmk64f_bm/debug/libusbd_bm.a(usb_hid.o)
 .debug_abbrev  0x0000186b      0x272 /opt/Freescale/KSDK_1.2.0/examples/frdmk64f/demo_apps/usb/device/hid/hhkb/bm/kds/../../../../../../../../../usb/usb_core/device/build/kds/usbd_sdk_frdmk64f_bm/debug/libusbd_bm.a(usb_class.o)
 .debug_abbrev  0x00001add      0x384 /opt/Freescale/KSDK_1.2.0/examples/frdmk64f/demo_apps/usb/device/hid/hhkb/bm/kds/../../../../../../../../../usb/usb_core/device/build/kds/usbd_sdk_frdmk64f_bm/debug/libusbd_bm.a(usb_dev.o)
 .debug_abbrev  0x00001e61      0x322 /opt/Freescale/KSDK_1.2.0/examples/frdmk64f/demo_apps/usb/device/hid/hhkb/bm/kds/../../../../../../../../../usb/usb_core/device/build/kds/usbd_sdk_frdmk64f_bm/debug/libusbd_bm.a(usb_framework.o)
 .debug_abbrev  0x00002183      0x2a8 /opt/Freescale/KSDK_1.2.0/examples/frdmk64f/demo_apps/usb/device/hid/hhkb/bm/kds/../../../../../../../../../usb/usb_core/device/build/kds/usbd_sdk_frdmk64f_bm/debug/libusbd_bm.a(usb_dev_bsp.o)
 .debug_abbrev  0x0000242b      0x20c /opt/Freescale/KSDK_1.2.0/examples/frdmk64f/demo_apps/usb/device/hid/hhkb/bm/kds/../../../../../../../../../usb/usb_core/device/build/kds/usbd_sdk_frdmk64f_bm/debug/libusbd_bm.a(adapter_sdk.o)
 .debug_abbrev  0x00002637       0x8b /opt/Freescale/KSDK_1.2.0/examples/frdmk64f/demo_apps/usb/device/hid/hhkb/bm/kds/../../../../../../../../../usb/usb_core/device/build/kds/usbd_sdk_frdmk64f_bm/debug/libusbd_bm.a(device_khci_interface.o)
 .debug_abbrev  0x000026c2      0x433 /opt/Freescale/KSDK_1.2.0/examples/frdmk64f/demo_apps/usb/device/hid/hhkb/bm/kds/../../../../../../../../../usb/usb_core/device/build/kds/usbd_sdk_frdmk64f_bm/debug/libusbd_bm.a(khci_dev.o)
 .debug_abbrev  0x00002af5      0x2ee /opt/Freescale/KSDK_1.2.0/examples/frdmk64f/demo_apps/usb/device/hid/hhkb/bm/kds/../../../../../../../../../lib/ksdk_platform_lib/kds/K64F12/debug/libksdk_platform.a(fsl_uart_hal.o)
 .debug_abbrev  0x00002de3      0x1d7 /opt/Freescale/KSDK_1.2.0/examples/frdmk64f/demo_apps/usb/device/hid/hhkb/bm/kds/../../../../../../../../../lib/ksdk_platform_lib/kds/K64F12/debug/libksdk_platform.a(fsl_sim_hal_MK64F12.o)
 .debug_abbrev  0x00002fba      0x3a2 /opt/Freescale/KSDK_1.2.0/examples/frdmk64f/demo_apps/usb/device/hid/hhkb/bm/kds/../../../../../../../../../lib/ksdk_platform_lib/kds/K64F12/debug/libksdk_platform.a(fsl_lptmr_driver.o)
 .debug_abbrev  0x0000335c      0x38a /opt/Freescale/KSDK_1.2.0/examples/frdmk64f/demo_apps/usb/device/hid/hhkb/bm/kds/../../../../../../../../../lib/ksdk_platform_lib/kds/K64F12/debug/libksdk_platform.a(fsl_gpio_driver.o)
 .debug_abbrev  0x000036e6      0x42d /opt/Freescale/KSDK_1.2.0/examples/frdmk64f/demo_apps/usb/device/hid/hhkb/bm/kds/../../../../../../../../../lib/ksdk_platform_lib/kds/K64F12/debug/libksdk_platform.a(fsl_clock_MK64F12.o)
 .debug_abbrev  0x00003b13      0x3ce /opt/Freescale/KSDK_1.2.0/examples/frdmk64f/demo_apps/usb/device/hid/hhkb/bm/kds/../../../../../../../../../lib/ksdk_platform_lib/kds/K64F12/debug/libksdk_platform.a(fsl_clock_manager.o)
 .debug_abbrev  0x00003ee1       0xec /opt/Freescale/KSDK_1.2.0/examples/frdmk64f/demo_apps/usb/device/hid/hhkb/bm/kds/../../../../../../../../../lib/ksdk_platform_lib/kds/K64F12/debug/libksdk_platform.a(fsl_clock_manager_common.o)
 .debug_abbrev  0x00003fcd      0x436 /opt/Freescale/KSDK_1.2.0/examples/frdmk64f/demo_apps/usb/device/hid/hhkb/bm/kds/../../../../../../../../../lib/ksdk_platform_lib/kds/K64F12/debug/libksdk_platform.a(fsl_os_abstraction_bm.o)
 .debug_abbrev  0x00004403       0xe6 /opt/Freescale/KSDK_1.2.0/examples/frdmk64f/demo_apps/usb/device/hid/hhkb/bm/kds/../../../../../../../../../lib/ksdk_platform_lib/kds/K64F12/debug/libksdk_platform.a(fsl_rtc_common.o)
 .debug_abbrev  0x000044e9       0xb9 /opt/Freescale/KSDK_1.2.0/examples/frdmk64f/demo_apps/usb/device/hid/hhkb/bm/kds/../../../../../../../../../lib/ksdk_platform_lib/kds/K64F12/debug/libksdk_platform.a(fsl_osc_hal.o)
 .debug_abbrev  0x000045a2      0x339 /opt/Freescale/KSDK_1.2.0/examples/frdmk64f/demo_apps/usb/device/hid/hhkb/bm/kds/../../../../../../../../../lib/ksdk_platform_lib/kds/K64F12/debug/libksdk_platform.a(fsl_mcg_hal.o)
 .debug_abbrev  0x000048db      0x315 /opt/Freescale/KSDK_1.2.0/examples/frdmk64f/demo_apps/usb/device/hid/hhkb/bm/kds/../../../../../../../../../lib/ksdk_platform_lib/kds/K64F12/debug/libksdk_platform.a(fsl_mcg_hal_modes.o)
 .debug_abbrev  0x00004bf0      0x1d6 /opt/Freescale/KSDK_1.2.0/examples/frdmk64f/demo_apps/usb/device/hid/hhkb/bm/kds/../../../../../../../../../lib/ksdk_platform_lib/kds/K64F12/debug/libksdk_platform.a(fsl_lptmr_hal.o)
 .debug_abbrev  0x00004dc6       0xbf /opt/Freescale/KSDK_1.2.0/examples/frdmk64f/demo_apps/usb/device/hid/hhkb/bm/kds/../../../../../../../../../lib/ksdk_platform_lib/kds/K64F12/debug/libksdk_platform.a(fsl_lptmr_common.o)
 .debug_abbrev  0x00004e85      0x16d /opt/Freescale/KSDK_1.2.0/examples/frdmk64f/demo_apps/usb/device/hid/hhkb/bm/kds/../../../../../../../../../lib/ksdk_platform_lib/kds/K64F12/debug/libksdk_platform.a(fsl_interrupt_manager.o)
 .debug_abbrev  0x00004ff2      0x126 /opt/Freescale/KSDK_1.2.0/examples/frdmk64f/demo_apps/usb/device/hid/hhkb/bm/kds/../../../../../../../../../lib/ksdk_platform_lib/kds/K64F12/debug/libksdk_platform.a(fsl_gpio_hal.o)
 .debug_abbrev  0x00005118       0xce /opt/Freescale/KSDK_1.2.0/examples/frdmk64f/demo_apps/usb/device/hid/hhkb/bm/kds/../../../../../../../../../lib/ksdk_platform_lib/kds/K64F12/debug/libksdk_platform.a(fsl_gpio_common.o)

.debug_loc      0x00000000     0xee09
 .debug_loc     0x00000000      0x3aa ./utilities/fsl_debug_console.o
 .debug_loc     0x000003aa       0xe3 ./utilities/fsl_misc_utilities.o
 .debug_loc     0x0000048d      0xf2b ./utilities/print_scan.o
 .debug_loc     0x000013b8       0xd5 ./startup/startup.o
 .debug_loc     0x0000148d       0x9b ./startup/system_MK64F12.o
 .debug_loc     0x00001528      0x52e ./sources/keyboard.o
 .debug_loc     0x00001a56      0x470 ./sources/usb_descriptor.o
 .debug_loc     0x00001ec6       0x37 ./board/hardware_init.o
 .debug_loc     0x00001efd      0x8d8 ./board/pin_mux.o
 .debug_loc     0x000027d5      0x8fb /opt/Freescale/KSDK_1.2.0/examples/frdmk64f/demo_apps/usb/device/hid/hhkb/bm/kds/../../../../../../../../../usb/usb_core/device/build/kds/usbd_sdk_frdmk64f_bm/debug/libusbd_bm.a(usb_hid.o)
 .debug_loc     0x000030d0      0x2a9 /opt/Freescale/KSDK_1.2.0/examples/frdmk64f/demo_apps/usb/device/hid/hhkb/bm/kds/../../../../../../../../../usb/usb_core/device/build/kds/usbd_sdk_frdmk64f_bm/debug/libusbd_bm.a(usb_class.o)
 .debug_loc     0x00003379     0x124a /opt/Freescale/KSDK_1.2.0/examples/frdmk64f/demo_apps/usb/device/hid/hhkb/bm/kds/../../../../../../../../../usb/usb_core/device/build/kds/usbd_sdk_frdmk64f_bm/debug/libusbd_bm.a(usb_dev.o)
 .debug_loc     0x000045c3      0xee6 /opt/Freescale/KSDK_1.2.0/examples/frdmk64f/demo_apps/usb/device/hid/hhkb/bm/kds/../../../../../../../../../usb/usb_core/device/build/kds/usbd_sdk_frdmk64f_bm/debug/libusbd_bm.a(usb_framework.o)
 .debug_loc     0x000054a9      0x2d6 /opt/Freescale/KSDK_1.2.0/examples/frdmk64f/demo_apps/usb/device/hid/hhkb/bm/kds/../../../../../../../../../usb/usb_core/device/build/kds/usbd_sdk_frdmk64f_bm/debug/libusbd_bm.a(usb_dev_bsp.o)
 .debug_loc     0x0000577f      0x7b6 /opt/Freescale/KSDK_1.2.0/examples/frdmk64f/demo_apps/usb/device/hid/hhkb/bm/kds/../../../../../../../../../usb/usb_core/device/build/kds/usbd_sdk_frdmk64f_bm/debug/libusbd_bm.a(adapter_sdk.o)
 .debug_loc     0x00005f35     0x16e5 /opt/Freescale/KSDK_1.2.0/examples/frdmk64f/demo_apps/usb/device/hid/hhkb/bm/kds/../../../../../../../../../usb/usb_core/device/build/kds/usbd_sdk_frdmk64f_bm/debug/libusbd_bm.a(khci_dev.o)
 .debug_loc     0x0000761a     0x10f2 /opt/Freescale/KSDK_1.2.0/examples/frdmk64f/demo_apps/usb/device/hid/hhkb/bm/kds/../../../../../../../../../lib/ksdk_platform_lib/kds/K64F12/debug/libksdk_platform.a(fsl_uart_hal.o)
 .debug_loc     0x0000870c     0x13e2 /opt/Freescale/KSDK_1.2.0/examples/frdmk64f/demo_apps/usb/device/hid/hhkb/bm/kds/../../../../../../../../../lib/ksdk_platform_lib/kds/K64F12/debug/libksdk_platform.a(fsl_sim_hal_MK64F12.o)
 .debug_loc     0x00009aee      0xc10 /opt/Freescale/KSDK_1.2.0/examples/frdmk64f/demo_apps/usb/device/hid/hhkb/bm/kds/../../../../../../../../../lib/ksdk_platform_lib/kds/K64F12/debug/libksdk_platform.a(fsl_lptmr_driver.o)
 .debug_loc     0x0000a6fe      0xa5e /opt/Freescale/KSDK_1.2.0/examples/frdmk64f/demo_apps/usb/device/hid/hhkb/bm/kds/../../../../../../../../../lib/ksdk_platform_lib/kds/K64F12/debug/libksdk_platform.a(fsl_gpio_driver.o)
 .debug_loc     0x0000b15c      0xdbf /opt/Freescale/KSDK_1.2.0/examples/frdmk64f/demo_apps/usb/device/hid/hhkb/bm/kds/../../../../../../../../../lib/ksdk_platform_lib/kds/K64F12/debug/libksdk_platform.a(fsl_clock_MK64F12.o)
 .debug_loc     0x0000bf1b      0x871 /opt/Freescale/KSDK_1.2.0/examples/frdmk64f/demo_apps/usb/device/hid/hhkb/bm/kds/../../../../../../../../../lib/ksdk_platform_lib/kds/K64F12/debug/libksdk_platform.a(fsl_clock_manager.o)
 .debug_loc     0x0000c78c      0xf7c /opt/Freescale/KSDK_1.2.0/examples/frdmk64f/demo_apps/usb/device/hid/hhkb/bm/kds/../../../../../../../../../lib/ksdk_platform_lib/kds/K64F12/debug/libksdk_platform.a(fsl_os_abstraction_bm.o)
 .debug_loc     0x0000d708       0x21 /opt/Freescale/KSDK_1.2.0/examples/frdmk64f/demo_apps/usb/device/hid/hhkb/bm/kds/../../../../../../../../../lib/ksdk_platform_lib/kds/K64F12/debug/libksdk_platform.a(fsl_osc_hal.o)
 .debug_loc     0x0000d729      0xa72 /opt/Freescale/KSDK_1.2.0/examples/frdmk64f/demo_apps/usb/device/hid/hhkb/bm/kds/../../../../../../../../../lib/ksdk_platform_lib/kds/K64F12/debug/libksdk_platform.a(fsl_mcg_hal.o)
 .debug_loc     0x0000e19b      0xa1c /opt/Freescale/KSDK_1.2.0/examples/frdmk64f/demo_apps/usb/device/hid/hhkb/bm/kds/../../../../../../../../../lib/ksdk_platform_lib/kds/K64F12/debug/libksdk_platform.a(fsl_mcg_hal_modes.o)
 .debug_loc     0x0000ebb7       0x6f /opt/Freescale/KSDK_1.2.0/examples/frdmk64f/demo_apps/usb/device/hid/hhkb/bm/kds/../../../../../../../../../lib/ksdk_platform_lib/kds/K64F12/debug/libksdk_platform.a(fsl_lptmr_hal.o)
 .debug_loc     0x0000ec26       0x98 /opt/Freescale/KSDK_1.2.0/examples/frdmk64f/demo_apps/usb/device/hid/hhkb/bm/kds/../../../../../../../../../lib/ksdk_platform_lib/kds/K64F12/debug/libksdk_platform.a(fsl_interrupt_manager.o)
 .debug_loc     0x0000ecbe      0x14b /opt/Freescale/KSDK_1.2.0/examples/frdmk64f/demo_apps/usb/device/hid/hhkb/bm/kds/../../../../../../../../../lib/ksdk_platform_lib/kds/K64F12/debug/libksdk_platform.a(fsl_gpio_hal.o)

.debug_aranges  0x00000000      0xf80
 .debug_aranges
                0x00000000       0x60 ./utilities/fsl_debug_console.o
 .debug_aranges
                0x00000060       0x28 ./utilities/fsl_misc_utilities.o
 .debug_aranges
                0x00000088       0x48 ./utilities/print_scan.o
 .debug_aranges
                0x000000d0       0x20 ./startup/startup.o
 .debug_aranges
                0x000000f0       0x20 ./startup/startup_MK64F12.o
 .debug_aranges
                0x00000110       0x28 ./startup/system_MK64F12.o
 .debug_aranges
                0x00000138       0x60 ./sources/keyboard.o
 .debug_aranges
                0x00000198       0x50 ./sources/usb_descriptor.o
 .debug_aranges
                0x000001e8       0x38 ./board/board.o
 .debug_aranges
                0x00000220       0x18 ./board/gpio_pins.o
 .debug_aranges
                0x00000238       0x20 ./board/hardware_init.o
 .debug_aranges
                0x00000258       0xc0 ./board/pin_mux.o
 .debug_aranges
                0x00000318       0x70 /opt/Freescale/KSDK_1.2.0/examples/frdmk64f/demo_apps/usb/device/hid/hhkb/bm/kds/../../../../../../../../../usb/usb_core/device/build/kds/usbd_sdk_frdmk64f_bm/debug/libusbd_bm.a(usb_hid.o)
 .debug_aranges
                0x00000388       0x40 /opt/Freescale/KSDK_1.2.0/examples/frdmk64f/demo_apps/usb/device/hid/hhkb/bm/kds/../../../../../../../../../usb/usb_core/device/build/kds/usbd_sdk_frdmk64f_bm/debug/libusbd_bm.a(usb_class.o)
 .debug_aranges
                0x000003c8       0xc0 /opt/Freescale/KSDK_1.2.0/examples/frdmk64f/demo_apps/usb/device/hid/hhkb/bm/kds/../../../../../../../../../usb/usb_core/device/build/kds/usbd_sdk_frdmk64f_bm/debug/libusbd_bm.a(usb_dev.o)
 .debug_aranges
                0x00000488       0x80 /opt/Freescale/KSDK_1.2.0/examples/frdmk64f/demo_apps/usb/device/hid/hhkb/bm/kds/../../../../../../../../../usb/usb_core/device/build/kds/usbd_sdk_frdmk64f_bm/debug/libusbd_bm.a(usb_framework.o)
 .debug_aranges
                0x00000508       0x28 /opt/Freescale/KSDK_1.2.0/examples/frdmk64f/demo_apps/usb/device/hid/hhkb/bm/kds/../../../../../../../../../usb/usb_core/device/build/kds/usbd_sdk_frdmk64f_bm/debug/libusbd_bm.a(usb_dev_bsp.o)
 .debug_aranges
                0x00000530       0xf0 /opt/Freescale/KSDK_1.2.0/examples/frdmk64f/demo_apps/usb/device/hid/hhkb/bm/kds/../../../../../../../../../usb/usb_core/device/build/kds/usbd_sdk_frdmk64f_bm/debug/libusbd_bm.a(adapter_sdk.o)
 .debug_aranges
                0x00000620       0x18 /opt/Freescale/KSDK_1.2.0/examples/frdmk64f/demo_apps/usb/device/hid/hhkb/bm/kds/../../../../../../../../../usb/usb_core/device/build/kds/usbd_sdk_frdmk64f_bm/debug/libusbd_bm.a(device_khci_interface.o)
 .debug_aranges
                0x00000638       0xd8 /opt/Freescale/KSDK_1.2.0/examples/frdmk64f/demo_apps/usb/device/hid/hhkb/bm/kds/../../../../../../../../../usb/usb_core/device/build/kds/usbd_sdk_frdmk64f_bm/debug/libusbd_bm.a(khci_dev.o)
 .debug_aranges
                0x00000710      0x128 /opt/Freescale/KSDK_1.2.0/examples/frdmk64f/demo_apps/usb/device/hid/hhkb/bm/kds/../../../../../../../../../lib/ksdk_platform_lib/kds/K64F12/debug/libksdk_platform.a(fsl_uart_hal.o)
 .debug_aranges
                0x00000838       0xd0 /opt/Freescale/KSDK_1.2.0/examples/frdmk64f/demo_apps/usb/device/hid/hhkb/bm/kds/../../../../../../../../../lib/ksdk_platform_lib/kds/K64F12/debug/libksdk_platform.a(fsl_sim_hal_MK64F12.o)
 .debug_aranges
                0x00000908       0x70 /opt/Freescale/KSDK_1.2.0/examples/frdmk64f/demo_apps/usb/device/hid/hhkb/bm/kds/../../../../../../../../../lib/ksdk_platform_lib/kds/K64F12/debug/libksdk_platform.a(fsl_lptmr_driver.o)
 .debug_aranges
                0x00000978       0x90 /opt/Freescale/KSDK_1.2.0/examples/frdmk64f/demo_apps/usb/device/hid/hhkb/bm/kds/../../../../../../../../../lib/ksdk_platform_lib/kds/K64F12/debug/libksdk_platform.a(fsl_gpio_driver.o)
 .debug_aranges
                0x00000a08      0x198 /opt/Freescale/KSDK_1.2.0/examples/frdmk64f/demo_apps/usb/device/hid/hhkb/bm/kds/../../../../../../../../../lib/ksdk_platform_lib/kds/K64F12/debug/libksdk_platform.a(fsl_clock_MK64F12.o)
 .debug_aranges
                0x00000ba0       0x70 /opt/Freescale/KSDK_1.2.0/examples/frdmk64f/demo_apps/usb/device/hid/hhkb/bm/kds/../../../../../../../../../lib/ksdk_platform_lib/kds/K64F12/debug/libksdk_platform.a(fsl_clock_manager.o)
 .debug_aranges
                0x00000c10       0x18 /opt/Freescale/KSDK_1.2.0/examples/frdmk64f/demo_apps/usb/device/hid/hhkb/bm/kds/../../../../../../../../../lib/ksdk_platform_lib/kds/K64F12/debug/libksdk_platform.a(fsl_clock_manager_common.o)
 .debug_aranges
                0x00000c28      0x148 /opt/Freescale/KSDK_1.2.0/examples/frdmk64f/demo_apps/usb/device/hid/hhkb/bm/kds/../../../../../../../../../lib/ksdk_platform_lib/kds/K64F12/debug/libksdk_platform.a(fsl_os_abstraction_bm.o)
 .debug_aranges
                0x00000d70       0x18 /opt/Freescale/KSDK_1.2.0/examples/frdmk64f/demo_apps/usb/device/hid/hhkb/bm/kds/../../../../../../../../../lib/ksdk_platform_lib/kds/K64F12/debug/libksdk_platform.a(fsl_rtc_common.o)
 .debug_aranges
                0x00000d88       0x20 /opt/Freescale/KSDK_1.2.0/examples/frdmk64f/demo_apps/usb/device/hid/hhkb/bm/kds/../../../../../../../../../lib/ksdk_platform_lib/kds/K64F12/debug/libksdk_platform.a(fsl_osc_hal.o)
 .debug_aranges
                0x00000da8       0xb0 /opt/Freescale/KSDK_1.2.0/examples/frdmk64f/demo_apps/usb/device/hid/hhkb/bm/kds/../../../../../../../../../lib/ksdk_platform_lib/kds/K64F12/debug/libksdk_platform.a(fsl_mcg_hal.o)
 .debug_aranges
                0x00000e58       0x68 /opt/Freescale/KSDK_1.2.0/examples/frdmk64f/demo_apps/usb/device/hid/hhkb/bm/kds/../../../../../../../../../lib/ksdk_platform_lib/kds/K64F12/debug/libksdk_platform.a(fsl_mcg_hal_modes.o)
 .debug_aranges
                0x00000ec0       0x38 /opt/Freescale/KSDK_1.2.0/examples/frdmk64f/demo_apps/usb/device/hid/hhkb/bm/kds/../../../../../../../../../lib/ksdk_platform_lib/kds/K64F12/debug/libksdk_platform.a(fsl_lptmr_hal.o)
 .debug_aranges
                0x00000ef8       0x18 /opt/Freescale/KSDK_1.2.0/examples/frdmk64f/demo_apps/usb/device/hid/hhkb/bm/kds/../../../../../../../../../lib/ksdk_platform_lib/kds/K64F12/debug/libksdk_platform.a(fsl_lptmr_common.o)
 .debug_aranges
                0x00000f10       0x30 /opt/Freescale/KSDK_1.2.0/examples/frdmk64f/demo_apps/usb/device/hid/hhkb/bm/kds/../../../../../../../../../lib/ksdk_platform_lib/kds/K64F12/debug/libksdk_platform.a(fsl_interrupt_manager.o)
 .debug_aranges
                0x00000f40       0x28 /opt/Freescale/KSDK_1.2.0/examples/frdmk64f/demo_apps/usb/device/hid/hhkb/bm/kds/../../../../../../../../../lib/ksdk_platform_lib/kds/K64F12/debug/libksdk_platform.a(fsl_gpio_hal.o)
 .debug_aranges
                0x00000f68       0x18 /opt/Freescale/KSDK_1.2.0/examples/frdmk64f/demo_apps/usb/device/hid/hhkb/bm/kds/../../../../../../../../../lib/ksdk_platform_lib/kds/K64F12/debug/libksdk_platform.a(fsl_gpio_common.o)

.debug_ranges   0x00000000     0x1340
 .debug_ranges  0x00000000       0xa8 ./utilities/fsl_debug_console.o
 .debug_ranges  0x000000a8       0x18 ./utilities/fsl_misc_utilities.o
 .debug_ranges  0x000000c0       0x38 ./utilities/print_scan.o
 .debug_ranges  0x000000f8       0x10 ./startup/startup.o
 .debug_ranges  0x00000108       0x18 ./startup/system_MK64F12.o
 .debug_ranges  0x00000120       0x80 ./sources/keyboard.o
 .debug_ranges  0x000001a0       0x58 ./sources/usb_descriptor.o
 .debug_ranges  0x000001f8       0x28 ./board/board.o
 .debug_ranges  0x00000220       0x10 ./board/hardware_init.o
 .debug_ranges  0x00000230      0x190 ./board/pin_mux.o
 .debug_ranges  0x000003c0       0x60 /opt/Freescale/KSDK_1.2.0/examples/frdmk64f/demo_apps/usb/device/hid/hhkb/bm/kds/../../../../../../../../../usb/usb_core/device/build/kds/usbd_sdk_frdmk64f_bm/debug/libusbd_bm.a(usb_hid.o)
 .debug_ranges  0x00000420       0x50 /opt/Freescale/KSDK_1.2.0/examples/frdmk64f/demo_apps/usb/device/hid/hhkb/bm/kds/../../../../../../../../../usb/usb_core/device/build/kds/usbd_sdk_frdmk64f_bm/debug/libusbd_bm.a(usb_class.o)
 .debug_ranges  0x00000470       0xc8 /opt/Freescale/KSDK_1.2.0/examples/frdmk64f/demo_apps/usb/device/hid/hhkb/bm/kds/../../../../../../../../../usb/usb_core/device/build/kds/usbd_sdk_frdmk64f_bm/debug/libusbd_bm.a(usb_dev.o)
 .debug_ranges  0x00000538       0x88 /opt/Freescale/KSDK_1.2.0/examples/frdmk64f/demo_apps/usb/device/hid/hhkb/bm/kds/../../../../../../../../../usb/usb_core/device/build/kds/usbd_sdk_frdmk64f_bm/debug/libusbd_bm.a(usb_framework.o)
 .debug_ranges  0x000005c0       0x80 /opt/Freescale/KSDK_1.2.0/examples/frdmk64f/demo_apps/usb/device/hid/hhkb/bm/kds/../../../../../../../../../usb/usb_core/device/build/kds/usbd_sdk_frdmk64f_bm/debug/libusbd_bm.a(usb_dev_bsp.o)
 .debug_ranges  0x00000640       0xe0 /opt/Freescale/KSDK_1.2.0/examples/frdmk64f/demo_apps/usb/device/hid/hhkb/bm/kds/../../../../../../../../../usb/usb_core/device/build/kds/usbd_sdk_frdmk64f_bm/debug/libusbd_bm.a(adapter_sdk.o)
 .debug_ranges  0x00000720      0x230 /opt/Freescale/KSDK_1.2.0/examples/frdmk64f/demo_apps/usb/device/hid/hhkb/bm/kds/../../../../../../../../../usb/usb_core/device/build/kds/usbd_sdk_frdmk64f_bm/debug/libusbd_bm.a(khci_dev.o)
 .debug_ranges  0x00000950      0x130 /opt/Freescale/KSDK_1.2.0/examples/frdmk64f/demo_apps/usb/device/hid/hhkb/bm/kds/../../../../../../../../../lib/ksdk_platform_lib/kds/K64F12/debug/libksdk_platform.a(fsl_uart_hal.o)
 .debug_ranges  0x00000a80       0xc0 /opt/Freescale/KSDK_1.2.0/examples/frdmk64f/demo_apps/usb/device/hid/hhkb/bm/kds/../../../../../../../../../lib/ksdk_platform_lib/kds/K64F12/debug/libksdk_platform.a(fsl_sim_hal_MK64F12.o)
 .debug_ranges  0x00000b40       0xa0 /opt/Freescale/KSDK_1.2.0/examples/frdmk64f/demo_apps/usb/device/hid/hhkb/bm/kds/../../../../../../../../../lib/ksdk_platform_lib/kds/K64F12/debug/libksdk_platform.a(fsl_lptmr_driver.o)
 .debug_ranges  0x00000be0      0x140 /opt/Freescale/KSDK_1.2.0/examples/frdmk64f/demo_apps/usb/device/hid/hhkb/bm/kds/../../../../../../../../../lib/ksdk_platform_lib/kds/K64F12/debug/libksdk_platform.a(fsl_gpio_driver.o)
 .debug_ranges  0x00000d20      0x188 /opt/Freescale/KSDK_1.2.0/examples/frdmk64f/demo_apps/usb/device/hid/hhkb/bm/kds/../../../../../../../../../lib/ksdk_platform_lib/kds/K64F12/debug/libksdk_platform.a(fsl_clock_MK64F12.o)
 .debug_ranges  0x00000ea8       0xa8 /opt/Freescale/KSDK_1.2.0/examples/frdmk64f/demo_apps/usb/device/hid/hhkb/bm/kds/../../../../../../../../../lib/ksdk_platform_lib/kds/K64F12/debug/libksdk_platform.a(fsl_clock_manager.o)
 .debug_ranges  0x00000f50      0x180 /opt/Freescale/KSDK_1.2.0/examples/frdmk64f/demo_apps/usb/device/hid/hhkb/bm/kds/../../../../../../../../../lib/ksdk_platform_lib/kds/K64F12/debug/libksdk_platform.a(fsl_os_abstraction_bm.o)
 .debug_ranges  0x000010d0       0x10 /opt/Freescale/KSDK_1.2.0/examples/frdmk64f/demo_apps/usb/device/hid/hhkb/bm/kds/../../../../../../../../../lib/ksdk_platform_lib/kds/K64F12/debug/libksdk_platform.a(fsl_osc_hal.o)
 .debug_ranges  0x000010e0       0xb8 /opt/Freescale/KSDK_1.2.0/examples/frdmk64f/demo_apps/usb/device/hid/hhkb/bm/kds/../../../../../../../../../lib/ksdk_platform_lib/kds/K64F12/debug/libksdk_platform.a(fsl_mcg_hal.o)
 .debug_ranges  0x00001198      0x118 /opt/Freescale/KSDK_1.2.0/examples/frdmk64f/demo_apps/usb/device/hid/hhkb/bm/kds/../../../../../../../../../lib/ksdk_platform_lib/kds/K64F12/debug/libksdk_platform.a(fsl_mcg_hal_modes.o)
 .debug_ranges  0x000012b0       0x58 /opt/Freescale/KSDK_1.2.0/examples/frdmk64f/demo_apps/usb/device/hid/hhkb/bm/kds/../../../../../../../../../lib/ksdk_platform_lib/kds/K64F12/debug/libksdk_platform.a(fsl_lptmr_hal.o)
 .debug_ranges  0x00001308       0x20 /opt/Freescale/KSDK_1.2.0/examples/frdmk64f/demo_apps/usb/device/hid/hhkb/bm/kds/../../../../../../../../../lib/ksdk_platform_lib/kds/K64F12/debug/libksdk_platform.a(fsl_interrupt_manager.o)
 .debug_ranges  0x00001328       0x18 /opt/Freescale/KSDK_1.2.0/examples/frdmk64f/demo_apps/usb/device/hid/hhkb/bm/kds/../../../../../../../../../lib/ksdk_platform_lib/kds/K64F12/debug/libksdk_platform.a(fsl_gpio_hal.o)

.debug_line     0x00000000     0x8241
 .debug_line    0x00000000      0x3c3 ./utilities/fsl_debug_console.o
 .debug_line    0x000003c3      0x12f ./utilities/fsl_misc_utilities.o
 .debug_line    0x000004f2      0x40d ./utilities/print_scan.o
 .debug_line    0x000008ff      0x132 ./startup/startup.o
 .debug_line    0x00000a31       0x88 ./startup/startup_MK64F12.o
 .debug_line    0x00000ab9      0x1c2 ./startup/system_MK64F12.o
 .debug_line    0x00000c7b      0x6ad ./sources/keyboard.o
 .debug_line    0x00001328      0x343 ./sources/usb_descriptor.o
 .debug_line    0x0000166b      0x37e ./board/board.o
 .debug_line    0x000019e9      0x18a ./board/gpio_pins.o
 .debug_line    0x00001b73      0x1f2 ./board/hardware_init.o
 .debug_line    0x00001d65      0x45c ./board/pin_mux.o
 .debug_line    0x000021c1      0x3ae /opt/Freescale/KSDK_1.2.0/examples/frdmk64f/demo_apps/usb/device/hid/hhkb/bm/kds/../../../../../../../../../usb/usb_core/device/build/kds/usbd_sdk_frdmk64f_bm/debug/libusbd_bm.a(usb_hid.o)
 .debug_line    0x0000256f      0x232 /opt/Freescale/KSDK_1.2.0/examples/frdmk64f/demo_apps/usb/device/hid/hhkb/bm/kds/../../../../../../../../../usb/usb_core/device/build/kds/usbd_sdk_frdmk64f_bm/debug/libusbd_bm.a(usb_class.o)
 .debug_line    0x000027a1      0x505 /opt/Freescale/KSDK_1.2.0/examples/frdmk64f/demo_apps/usb/device/hid/hhkb/bm/kds/../../../../../../../../../usb/usb_core/device/build/kds/usbd_sdk_frdmk64f_bm/debug/libusbd_bm.a(usb_dev.o)
 .debug_line    0x00002ca6      0x3c9 /opt/Freescale/KSDK_1.2.0/examples/frdmk64f/demo_apps/usb/device/hid/hhkb/bm/kds/../../../../../../../../../usb/usb_core/device/build/kds/usbd_sdk_frdmk64f_bm/debug/libusbd_bm.a(usb_framework.o)
 .debug_line    0x0000306f      0x323 /opt/Freescale/KSDK_1.2.0/examples/frdmk64f/demo_apps/usb/device/hid/hhkb/bm/kds/../../../../../../../../../usb/usb_core/device/build/kds/usbd_sdk_frdmk64f_bm/debug/libusbd_bm.a(usb_dev_bsp.o)
 .debug_line    0x00003392      0x420 /opt/Freescale/KSDK_1.2.0/examples/frdmk64f/demo_apps/usb/device/hid/hhkb/bm/kds/../../../../../../../../../usb/usb_core/device/build/kds/usbd_sdk_frdmk64f_bm/debug/libusbd_bm.a(adapter_sdk.o)
 .debug_line    0x000037b2      0x135 /opt/Freescale/KSDK_1.2.0/examples/frdmk64f/demo_apps/usb/device/hid/hhkb/bm/kds/../../../../../../../../../usb/usb_core/device/build/kds/usbd_sdk_frdmk64f_bm/debug/libusbd_bm.a(device_khci_interface.o)
 .debug_line    0x000038e7      0x8fc /opt/Freescale/KSDK_1.2.0/examples/frdmk64f/demo_apps/usb/device/hid/hhkb/bm/kds/../../../../../../../../../usb/usb_core/device/build/kds/usbd_sdk_frdmk64f_bm/debug/libusbd_bm.a(khci_dev.o)
 .debug_line    0x000041e3      0x5f6 /opt/Freescale/KSDK_1.2.0/examples/frdmk64f/demo_apps/usb/device/hid/hhkb/bm/kds/../../../../../../../../../lib/ksdk_platform_lib/kds/K64F12/debug/libksdk_platform.a(fsl_uart_hal.o)
 .debug_line    0x000047d9      0x4de /opt/Freescale/KSDK_1.2.0/examples/frdmk64f/demo_apps/usb/device/hid/hhkb/bm/kds/../../../../../../../../../lib/ksdk_platform_lib/kds/K64F12/debug/libksdk_platform.a(fsl_sim_hal_MK64F12.o)
 .debug_line    0x00004cb7      0x59c /opt/Freescale/KSDK_1.2.0/examples/frdmk64f/demo_apps/usb/device/hid/hhkb/bm/kds/../../../../../../../../../lib/ksdk_platform_lib/kds/K64F12/debug/libksdk_platform.a(fsl_lptmr_driver.o)
 .debug_line    0x00005253      0x4d4 /opt/Freescale/KSDK_1.2.0/examples/frdmk64f/demo_apps/usb/device/hid/hhkb/bm/kds/../../../../../../../../../lib/ksdk_platform_lib/kds/K64F12/debug/libksdk_platform.a(fsl_gpio_driver.o)
 .debug_line    0x00005727      0x8b5 /opt/Freescale/KSDK_1.2.0/examples/frdmk64f/demo_apps/usb/device/hid/hhkb/bm/kds/../../../../../../../../../lib/ksdk_platform_lib/kds/K64F12/debug/libksdk_platform.a(fsl_clock_MK64F12.o)
 .debug_line    0x00005fdc      0x5cb /opt/Freescale/KSDK_1.2.0/examples/frdmk64f/demo_apps/usb/device/hid/hhkb/bm/kds/../../../../../../../../../lib/ksdk_platform_lib/kds/K64F12/debug/libksdk_platform.a(fsl_clock_manager.o)
 .debug_line    0x000065a7      0x1b7 /opt/Freescale/KSDK_1.2.0/examples/frdmk64f/demo_apps/usb/device/hid/hhkb/bm/kds/../../../../../../../../../lib/ksdk_platform_lib/kds/K64F12/debug/libksdk_platform.a(fsl_clock_manager_common.o)
 .debug_line    0x0000675e      0x780 /opt/Freescale/KSDK_1.2.0/examples/frdmk64f/demo_apps/usb/device/hid/hhkb/bm/kds/../../../../../../../../../lib/ksdk_platform_lib/kds/K64F12/debug/libksdk_platform.a(fsl_os_abstraction_bm.o)
 .debug_line    0x00006ede      0x12c /opt/Freescale/KSDK_1.2.0/examples/frdmk64f/demo_apps/usb/device/hid/hhkb/bm/kds/../../../../../../../../../lib/ksdk_platform_lib/kds/K64F12/debug/libksdk_platform.a(fsl_rtc_common.o)
 .debug_line    0x0000700a      0x135 /opt/Freescale/KSDK_1.2.0/examples/frdmk64f/demo_apps/usb/device/hid/hhkb/bm/kds/../../../../../../../../../lib/ksdk_platform_lib/kds/K64F12/debug/libksdk_platform.a(fsl_osc_hal.o)
 .debug_line    0x0000713f      0x417 /opt/Freescale/KSDK_1.2.0/examples/frdmk64f/demo_apps/usb/device/hid/hhkb/bm/kds/../../../../../../../../../lib/ksdk_platform_lib/kds/K64F12/debug/libksdk_platform.a(fsl_mcg_hal.o)
 .debug_line    0x00007556      0x4ee /opt/Freescale/KSDK_1.2.0/examples/frdmk64f/demo_apps/usb/device/hid/hhkb/bm/kds/../../../../../../../../../lib/ksdk_platform_lib/kds/K64F12/debug/libksdk_platform.a(fsl_mcg_hal_modes.o)
 .debug_line    0x00007a44      0x1d8 /opt/Freescale/KSDK_1.2.0/examples/frdmk64f/demo_apps/usb/device/hid/hhkb/bm/kds/../../../../../../../../../lib/ksdk_platform_lib/kds/K64F12/debug/libksdk_platform.a(fsl_lptmr_hal.o)
 .debug_line    0x00007c1c      0x130 /opt/Freescale/KSDK_1.2.0/examples/frdmk64f/demo_apps/usb/device/hid/hhkb/bm/kds/../../../../../../../../../lib/ksdk_platform_lib/kds/K64F12/debug/libksdk_platform.a(fsl_lptmr_common.o)
 .debug_line    0x00007d4c      0x1ed /opt/Freescale/KSDK_1.2.0/examples/frdmk64f/demo_apps/usb/device/hid/hhkb/bm/kds/../../../../../../../../../lib/ksdk_platform_lib/kds/K64F12/debug/libksdk_platform.a(fsl_interrupt_manager.o)
 .debug_line    0x00007f39      0x1da /opt/Freescale/KSDK_1.2.0/examples/frdmk64f/demo_apps/usb/device/hid/hhkb/bm/kds/../../../../../../../../../lib/ksdk_platform_lib/kds/K64F12/debug/libksdk_platform.a(fsl_gpio_hal.o)
 .debug_line    0x00008113      0x12e /opt/Freescale/KSDK_1.2.0/examples/frdmk64f/demo_apps/usb/device/hid/hhkb/bm/kds/../../../../../../../../../lib/ksdk_platform_lib/kds/K64F12/debug/libksdk_platform.a(fsl_gpio_common.o)

.debug_str      0x00000000     0x9930
 .debug_str     0x00000000      0x9bf ./utilities/fsl_debug_console.o
                                0xa45 (size before relaxing)
 .debug_str     0x000009bf       0x9b ./utilities/fsl_misc_utilities.o
                                0x2d0 (size before relaxing)
 .debug_str     0x00000a5a      0x17f ./utilities/print_scan.o
                                0x414 (size before relaxing)
 .debug_str     0x00000bd9      0x15b ./startup/startup.o
                                0x389 (size before relaxing)
 .debug_str     0x00000d34      0x1b4 ./startup/system_MK64F12.o
                                0x456 (size before relaxing)
 .debug_str     0x00000ee8     0x11bc ./sources/keyboard.o
                               0x14d7 (size before relaxing)
 .debug_str     0x000020a4      0x733 ./sources/usb_descriptor.o
                                0xb7e (size before relaxing)
 .debug_str     0x000027d7      0x8b1 ./board/board.o
                                0xcf1 (size before relaxing)
 .debug_str     0x00003088       0x9e ./board/gpio_pins.o
                                0x5b4 (size before relaxing)
 .debug_str     0x00003126       0x74 ./board/hardware_init.o
                                0x325 (size before relaxing)
 .debug_str     0x0000319a      0x206 ./board/pin_mux.o
                                0x649 (size before relaxing)
 .debug_str     0x000033a0      0x416 /opt/Freescale/KSDK_1.2.0/examples/frdmk64f/demo_apps/usb/device/hid/hhkb/bm/kds/../../../../../../../../../usb/usb_core/device/build/kds/usbd_sdk_frdmk64f_bm/debug/libusbd_bm.a(usb_hid.o)
                                0xb0e (size before relaxing)
 .debug_str     0x000037b6      0x1d0 /opt/Freescale/KSDK_1.2.0/examples/frdmk64f/demo_apps/usb/device/hid/hhkb/bm/kds/../../../../../../../../../usb/usb_core/device/build/kds/usbd_sdk_frdmk64f_bm/debug/libusbd_bm.a(usb_class.o)
                                0x681 (size before relaxing)
 .debug_str     0x00003986      0x655 /opt/Freescale/KSDK_1.2.0/examples/frdmk64f/demo_apps/usb/device/hid/hhkb/bm/kds/../../../../../../../../../usb/usb_core/device/build/kds/usbd_sdk_frdmk64f_bm/debug/libusbd_bm.a(usb_dev.o)
                                0xd3e (size before relaxing)
 .debug_str     0x00003fdb      0x1e6 /opt/Freescale/KSDK_1.2.0/examples/frdmk64f/demo_apps/usb/device/hid/hhkb/bm/kds/../../../../../../../../../usb/usb_core/device/build/kds/usbd_sdk_frdmk64f_bm/debug/libusbd_bm.a(usb_framework.o)
                                0x899 (size before relaxing)
 .debug_str     0x000041c1      0xdbf /opt/Freescale/KSDK_1.2.0/examples/frdmk64f/demo_apps/usb/device/hid/hhkb/bm/kds/../../../../../../../../../usb/usb_core/device/build/kds/usbd_sdk_frdmk64f_bm/debug/libusbd_bm.a(usb_dev_bsp.o)
                               0x1299 (size before relaxing)
 .debug_str     0x00004f80      0x4e9 /opt/Freescale/KSDK_1.2.0/examples/frdmk64f/demo_apps/usb/device/hid/hhkb/bm/kds/../../../../../../../../../usb/usb_core/device/build/kds/usbd_sdk_frdmk64f_bm/debug/libusbd_bm.a(adapter_sdk.o)
                                0xd71 (size before relaxing)
 .debug_str     0x00005469       0x5e /opt/Freescale/KSDK_1.2.0/examples/frdmk64f/demo_apps/usb/device/hid/hhkb/bm/kds/../../../../../../../../../usb/usb_core/device/build/kds/usbd_sdk_frdmk64f_bm/debug/libusbd_bm.a(device_khci_interface.o)
                                0x4f9 (size before relaxing)
 .debug_str     0x000054c7      0xa6b /opt/Freescale/KSDK_1.2.0/examples/frdmk64f/demo_apps/usb/device/hid/hhkb/bm/kds/../../../../../../../../../usb/usb_core/device/build/kds/usbd_sdk_frdmk64f_bm/debug/libusbd_bm.a(khci_dev.o)
                               0x11f2 (size before relaxing)
 .debug_str     0x00005f32      0xac7 /opt/Freescale/KSDK_1.2.0/examples/frdmk64f/demo_apps/usb/device/hid/hhkb/bm/kds/../../../../../../../../../lib/ksdk_platform_lib/kds/K64F12/debug/libksdk_platform.a(fsl_uart_hal.o)
                                0xebb (size before relaxing)
 .debug_str     0x000069f9      0x652 /opt/Freescale/KSDK_1.2.0/examples/frdmk64f/demo_apps/usb/device/hid/hhkb/bm/kds/../../../../../../../../../lib/ksdk_platform_lib/kds/K64F12/debug/libksdk_platform.a(fsl_sim_hal_MK64F12.o)
                                0x9a0 (size before relaxing)
 .debug_str     0x0000704b      0x446 /opt/Freescale/KSDK_1.2.0/examples/frdmk64f/demo_apps/usb/device/hid/hhkb/bm/kds/../../../../../../../../../lib/ksdk_platform_lib/kds/K64F12/debug/libksdk_platform.a(fsl_lptmr_driver.o)
                               0x1786 (size before relaxing)
 .debug_str     0x00007491      0x2a0 /opt/Freescale/KSDK_1.2.0/examples/frdmk64f/demo_apps/usb/device/hid/hhkb/bm/kds/../../../../../../../../../lib/ksdk_platform_lib/kds/K64F12/debug/libksdk_platform.a(fsl_gpio_driver.o)
                                0xfe2 (size before relaxing)
 .debug_str     0x00007731      0xd3f /opt/Freescale/KSDK_1.2.0/examples/frdmk64f/demo_apps/usb/device/hid/hhkb/bm/kds/../../../../../../../../../lib/ksdk_platform_lib/kds/K64F12/debug/libksdk_platform.a(fsl_clock_MK64F12.o)
                               0x1bf7 (size before relaxing)
 .debug_str     0x00008470      0x900 /opt/Freescale/KSDK_1.2.0/examples/frdmk64f/demo_apps/usb/device/hid/hhkb/bm/kds/../../../../../../../../../lib/ksdk_platform_lib/kds/K64F12/debug/libksdk_platform.a(fsl_clock_manager.o)
                               0x191f (size before relaxing)
 .debug_str     0x00008d70       0x63 /opt/Freescale/KSDK_1.2.0/examples/frdmk64f/demo_apps/usb/device/hid/hhkb/bm/kds/../../../../../../../../../lib/ksdk_platform_lib/kds/K64F12/debug/libksdk_platform.a(fsl_clock_manager_common.o)
                                0x3a2 (size before relaxing)
 .debug_str     0x00008dd3      0x2cc /opt/Freescale/KSDK_1.2.0/examples/frdmk64f/demo_apps/usb/device/hid/hhkb/bm/kds/../../../../../../../../../lib/ksdk_platform_lib/kds/K64F12/debug/libksdk_platform.a(fsl_os_abstraction_bm.o)
                               0x1949 (size before relaxing)
 .debug_str     0x0000909f       0x61 /opt/Freescale/KSDK_1.2.0/examples/frdmk64f/demo_apps/usb/device/hid/hhkb/bm/kds/../../../../../../../../../lib/ksdk_platform_lib/kds/K64F12/debug/libksdk_platform.a(fsl_rtc_common.o)
                                0x76a (size before relaxing)
 .debug_str     0x00009100       0x45 /opt/Freescale/KSDK_1.2.0/examples/frdmk64f/demo_apps/usb/device/hid/hhkb/bm/kds/../../../../../../../../../lib/ksdk_platform_lib/kds/K64F12/debug/libksdk_platform.a(fsl_osc_hal.o)
                                0x26b (size before relaxing)
 .debug_str     0x00009145      0x50b /opt/Freescale/KSDK_1.2.0/examples/frdmk64f/demo_apps/usb/device/hid/hhkb/bm/kds/../../../../../../../../../lib/ksdk_platform_lib/kds/K64F12/debug/libksdk_platform.a(fsl_mcg_hal.o)
                                0xb67 (size before relaxing)
 .debug_str     0x00009650      0x13b /opt/Freescale/KSDK_1.2.0/examples/frdmk64f/demo_apps/usb/device/hid/hhkb/bm/kds/../../../../../../../../../lib/ksdk_platform_lib/kds/K64F12/debug/libksdk_platform.a(fsl_mcg_hal_modes.o)
                                0xad6 (size before relaxing)
 .debug_str     0x0000978b       0x55 /opt/Freescale/KSDK_1.2.0/examples/frdmk64f/demo_apps/usb/device/hid/hhkb/bm/kds/../../../../../../../../../lib/ksdk_platform_lib/kds/K64F12/debug/libksdk_platform.a(fsl_lptmr_hal.o)
                                0x8b6 (size before relaxing)
 .debug_str     0x000097e0       0x48 /opt/Freescale/KSDK_1.2.0/examples/frdmk64f/demo_apps/usb/device/hid/hhkb/bm/kds/../../../../../../../../../lib/ksdk_platform_lib/kds/K64F12/debug/libksdk_platform.a(fsl_lptmr_common.o)
                                0x74f (size before relaxing)
 .debug_str     0x00009828       0x83 /opt/Freescale/KSDK_1.2.0/examples/frdmk64f/demo_apps/usb/device/hid/hhkb/bm/kds/../../../../../../../../../lib/ksdk_platform_lib/kds/K64F12/debug/libksdk_platform.a(fsl_interrupt_manager.o)
                                0x7eb (size before relaxing)
 .debug_str     0x000098ab       0x3f /opt/Freescale/KSDK_1.2.0/examples/frdmk64f/demo_apps/usb/device/hid/hhkb/bm/kds/../../../../../../../../../lib/ksdk_platform_lib/kds/K64F12/debug/libksdk_platform.a(fsl_gpio_hal.o)
                                0x308 (size before relaxing)
 .debug_str     0x000098ea       0x46 /opt/Freescale/KSDK_1.2.0/examples/frdmk64f/demo_apps/usb/device/hid/hhkb/bm/kds/../../../../../../../../../lib/ksdk_platform_lib/kds/K64F12/debug/libksdk_platform.a(fsl_gpio_common.o)
                                0x7bb (size before relaxing)

.comment        0x00000000       0x70
 .comment       0x00000000       0x70 ./utilities/fsl_debug_console.o
                                 0x71 (size before relaxing)
 .comment       0x00000000       0x71 ./utilities/fsl_misc_utilities.o
 .comment       0x00000000       0x71 ./utilities/print_scan.o
 .comment       0x00000000       0x71 ./startup/startup.o
 .comment       0x00000000       0x71 ./startup/system_MK64F12.o
 .comment       0x00000000       0x71 ./sources/keyboard.o
 .comment       0x00000000       0x71 ./sources/usb_descriptor.o
 .comment       0x00000000       0x71 ./board/board.o
 .comment       0x00000000       0x71 ./board/gpio_pins.o
 .comment       0x00000000       0x71 ./board/hardware_init.o
 .comment       0x00000000       0x71 ./board/pin_mux.o
 .comment       0x00000000       0x71 /opt/Freescale/KSDK_1.2.0/examples/frdmk64f/demo_apps/usb/device/hid/hhkb/bm/kds/../../../../../../../../../usb/usb_core/device/build/kds/usbd_sdk_frdmk64f_bm/debug/libusbd_bm.a(usb_hid.o)
 .comment       0x00000000       0x71 /opt/Freescale/KSDK_1.2.0/examples/frdmk64f/demo_apps/usb/device/hid/hhkb/bm/kds/../../../../../../../../../usb/usb_core/device/build/kds/usbd_sdk_frdmk64f_bm/debug/libusbd_bm.a(usb_class.o)
 .comment       0x00000000       0x71 /opt/Freescale/KSDK_1.2.0/examples/frdmk64f/demo_apps/usb/device/hid/hhkb/bm/kds/../../../../../../../../../usb/usb_core/device/build/kds/usbd_sdk_frdmk64f_bm/debug/libusbd_bm.a(usb_dev.o)
 .comment       0x00000000       0x71 /opt/Freescale/KSDK_1.2.0/examples/frdmk64f/demo_apps/usb/device/hid/hhkb/bm/kds/../../../../../../../../../usb/usb_core/device/build/kds/usbd_sdk_frdmk64f_bm/debug/libusbd_bm.a(usb_framework.o)
 .comment       0x00000000       0x71 /opt/Freescale/KSDK_1.2.0/examples/frdmk64f/demo_apps/usb/device/hid/hhkb/bm/kds/../../../../../../../../../usb/usb_core/device/build/kds/usbd_sdk_frdmk64f_bm/debug/libusbd_bm.a(usb_dev_bsp.o)
 .comment       0x00000000       0x71 /opt/Freescale/KSDK_1.2.0/examples/frdmk64f/demo_apps/usb/device/hid/hhkb/bm/kds/../../../../../../../../../usb/usb_core/device/build/kds/usbd_sdk_frdmk64f_bm/debug/libusbd_bm.a(adapter_sdk.o)
 .comment       0x00000000       0x71 /opt/Freescale/KSDK_1.2.0/examples/frdmk64f/demo_apps/usb/device/hid/hhkb/bm/kds/../../../../../../../../../usb/usb_core/device/build/kds/usbd_sdk_frdmk64f_bm/debug/libusbd_bm.a(device_khci_interface.o)
 .comment       0x00000000       0x71 /opt/Freescale/KSDK_1.2.0/examples/frdmk64f/demo_apps/usb/device/hid/hhkb/bm/kds/../../../../../../../../../usb/usb_core/device/build/kds/usbd_sdk_frdmk64f_bm/debug/libusbd_bm.a(khci_dev.o)
 .comment       0x00000000       0x71 /opt/Freescale/KSDK_1.2.0/examples/frdmk64f/demo_apps/usb/device/hid/hhkb/bm/kds/../../../../../../../../../lib/ksdk_platform_lib/kds/K64F12/debug/libksdk_platform.a(fsl_uart_hal.o)
 .comment       0x00000000       0x71 /opt/Freescale/KSDK_1.2.0/examples/frdmk64f/demo_apps/usb/device/hid/hhkb/bm/kds/../../../../../../../../../lib/ksdk_platform_lib/kds/K64F12/debug/libksdk_platform.a(fsl_sim_hal_MK64F12.o)
 .comment       0x00000000       0x71 /opt/Freescale/KSDK_1.2.0/examples/frdmk64f/demo_apps/usb/device/hid/hhkb/bm/kds/../../../../../../../../../lib/ksdk_platform_lib/kds/K64F12/debug/libksdk_platform.a(fsl_lptmr_driver.o)
 .comment       0x00000000       0x71 /opt/Freescale/KSDK_1.2.0/examples/frdmk64f/demo_apps/usb/device/hid/hhkb/bm/kds/../../../../../../../../../lib/ksdk_platform_lib/kds/K64F12/debug/libksdk_platform.a(fsl_gpio_driver.o)
 .comment       0x00000000       0x71 /opt/Freescale/KSDK_1.2.0/examples/frdmk64f/demo_apps/usb/device/hid/hhkb/bm/kds/../../../../../../../../../lib/ksdk_platform_lib/kds/K64F12/debug/libksdk_platform.a(fsl_clock_MK64F12.o)
 .comment       0x00000000       0x71 /opt/Freescale/KSDK_1.2.0/examples/frdmk64f/demo_apps/usb/device/hid/hhkb/bm/kds/../../../../../../../../../lib/ksdk_platform_lib/kds/K64F12/debug/libksdk_platform.a(fsl_clock_manager.o)
 .comment       0x00000000       0x71 /opt/Freescale/KSDK_1.2.0/examples/frdmk64f/demo_apps/usb/device/hid/hhkb/bm/kds/../../../../../../../../../lib/ksdk_platform_lib/kds/K64F12/debug/libksdk_platform.a(fsl_clock_manager_common.o)
 .comment       0x00000000       0x71 /opt/Freescale/KSDK_1.2.0/examples/frdmk64f/demo_apps/usb/device/hid/hhkb/bm/kds/../../../../../../../../../lib/ksdk_platform_lib/kds/K64F12/debug/libksdk_platform.a(fsl_os_abstraction_bm.o)
 .comment       0x00000000       0x71 /opt/Freescale/KSDK_1.2.0/examples/frdmk64f/demo_apps/usb/device/hid/hhkb/bm/kds/../../../../../../../../../lib/ksdk_platform_lib/kds/K64F12/debug/libksdk_platform.a(fsl_rtc_common.o)
 .comment       0x00000000       0x71 /opt/Freescale/KSDK_1.2.0/examples/frdmk64f/demo_apps/usb/device/hid/hhkb/bm/kds/../../../../../../../../../lib/ksdk_platform_lib/kds/K64F12/debug/libksdk_platform.a(fsl_osc_hal.o)
 .comment       0x00000000       0x71 /opt/Freescale/KSDK_1.2.0/examples/frdmk64f/demo_apps/usb/device/hid/hhkb/bm/kds/../../../../../../../../../lib/ksdk_platform_lib/kds/K64F12/debug/libksdk_platform.a(fsl_mcg_hal.o)
 .comment       0x00000000       0x71 /opt/Freescale/KSDK_1.2.0/examples/frdmk64f/demo_apps/usb/device/hid/hhkb/bm/kds/../../../../../../../../../lib/ksdk_platform_lib/kds/K64F12/debug/libksdk_platform.a(fsl_mcg_hal_modes.o)
 .comment       0x00000000       0x71 /opt/Freescale/KSDK_1.2.0/examples/frdmk64f/demo_apps/usb/device/hid/hhkb/bm/kds/../../../../../../../../../lib/ksdk_platform_lib/kds/K64F12/debug/libksdk_platform.a(fsl_lptmr_hal.o)
 .comment       0x00000000       0x71 /opt/Freescale/KSDK_1.2.0/examples/frdmk64f/demo_apps/usb/device/hid/hhkb/bm/kds/../../../../../../../../../lib/ksdk_platform_lib/kds/K64F12/debug/libksdk_platform.a(fsl_lptmr_common.o)
 .comment       0x00000000       0x71 /opt/Freescale/KSDK_1.2.0/examples/frdmk64f/demo_apps/usb/device/hid/hhkb/bm/kds/../../../../../../../../../lib/ksdk_platform_lib/kds/K64F12/debug/libksdk_platform.a(fsl_interrupt_manager.o)
 .comment       0x00000000       0x71 /opt/Freescale/KSDK_1.2.0/examples/frdmk64f/demo_apps/usb/device/hid/hhkb/bm/kds/../../../../../../../../../lib/ksdk_platform_lib/kds/K64F12/debug/libksdk_platform.a(fsl_gpio_hal.o)
 .comment       0x00000000       0x71 /opt/Freescale/KSDK_1.2.0/examples/frdmk64f/demo_apps/usb/device/hid/hhkb/bm/kds/../../../../../../../../../lib/ksdk_platform_lib/kds/K64F12/debug/libksdk_platform.a(fsl_gpio_common.o)

.debug_frame    0x00000000     0x2efc
 .debug_frame   0x00000000      0x12c ./utilities/fsl_debug_console.o
 .debug_frame   0x0000012c       0x44 ./utilities/fsl_misc_utilities.o
 .debug_frame   0x00000170       0xc0 ./utilities/print_scan.o
 .debug_frame   0x00000230       0x28 ./startup/startup.o
 .debug_frame   0x00000258       0x30 ./startup/system_MK64F12.o
 .debug_frame   0x00000288       0xf4 ./sources/keyboard.o
 .debug_frame   0x0000037c       0xa0 ./sources/usb_descriptor.o
 .debug_frame   0x0000041c       0x80 ./board/board.o
 .debug_frame   0x0000049c       0x28 ./board/hardware_init.o
 .debug_frame   0x000004c4      0x1a0 ./board/pin_mux.o
 .debug_frame   0x00000664      0x130 /opt/Freescale/KSDK_1.2.0/examples/frdmk64f/demo_apps/usb/device/hid/hhkb/bm/kds/../../../../../../../../../usb/usb_core/device/build/kds/usbd_sdk_frdmk64f_bm/debug/libusbd_bm.a(usb_hid.o)
 .debug_frame   0x00000794       0x70 /opt/Freescale/KSDK_1.2.0/examples/frdmk64f/demo_apps/usb/device/hid/hhkb/bm/kds/../../../../../../../../../usb/usb_core/device/build/kds/usbd_sdk_frdmk64f_bm/debug/libusbd_bm.a(usb_class.o)
 .debug_frame   0x00000804      0x244 /opt/Freescale/KSDK_1.2.0/examples/frdmk64f/demo_apps/usb/device/hid/hhkb/bm/kds/../../../../../../../../../usb/usb_core/device/build/kds/usbd_sdk_frdmk64f_bm/debug/libusbd_bm.a(usb_dev.o)
 .debug_frame   0x00000a48      0x17c /opt/Freescale/KSDK_1.2.0/examples/frdmk64f/demo_apps/usb/device/hid/hhkb/bm/kds/../../../../../../../../../usb/usb_core/device/build/kds/usbd_sdk_frdmk64f_bm/debug/libusbd_bm.a(usb_framework.o)
 .debug_frame   0x00000bc4       0x3c /opt/Freescale/KSDK_1.2.0/examples/frdmk64f/demo_apps/usb/device/hid/hhkb/bm/kds/../../../../../../../../../usb/usb_core/device/build/kds/usbd_sdk_frdmk64f_bm/debug/libusbd_bm.a(usb_dev_bsp.o)
 .debug_frame   0x00000c00      0x29c /opt/Freescale/KSDK_1.2.0/examples/frdmk64f/demo_apps/usb/device/hid/hhkb/bm/kds/../../../../../../../../../usb/usb_core/device/build/kds/usbd_sdk_frdmk64f_bm/debug/libusbd_bm.a(adapter_sdk.o)
 .debug_frame   0x00000e9c      0x298 /opt/Freescale/KSDK_1.2.0/examples/frdmk64f/demo_apps/usb/device/hid/hhkb/bm/kds/../../../../../../../../../usb/usb_core/device/build/kds/usbd_sdk_frdmk64f_bm/debug/libusbd_bm.a(khci_dev.o)
 .debug_frame   0x00001134      0x29c /opt/Freescale/KSDK_1.2.0/examples/frdmk64f/demo_apps/usb/device/hid/hhkb/bm/kds/../../../../../../../../../lib/ksdk_platform_lib/kds/K64F12/debug/libksdk_platform.a(fsl_uart_hal.o)
 .debug_frame   0x000013d0      0x244 /opt/Freescale/KSDK_1.2.0/examples/frdmk64f/demo_apps/usb/device/hid/hhkb/bm/kds/../../../../../../../../../lib/ksdk_platform_lib/kds/K64F12/debug/libksdk_platform.a(fsl_sim_hal_MK64F12.o)
 .debug_frame   0x00001614      0x134 /opt/Freescale/KSDK_1.2.0/examples/frdmk64f/demo_apps/usb/device/hid/hhkb/bm/kds/../../../../../../../../../lib/ksdk_platform_lib/kds/K64F12/debug/libksdk_platform.a(fsl_lptmr_driver.o)
 .debug_frame   0x00001748      0x180 /opt/Freescale/KSDK_1.2.0/examples/frdmk64f/demo_apps/usb/device/hid/hhkb/bm/kds/../../../../../../../../../lib/ksdk_platform_lib/kds/K64F12/debug/libksdk_platform.a(fsl_gpio_driver.o)
 .debug_frame   0x000018c8      0x41c /opt/Freescale/KSDK_1.2.0/examples/frdmk64f/demo_apps/usb/device/hid/hhkb/bm/kds/../../../../../../../../../lib/ksdk_platform_lib/kds/K64F12/debug/libksdk_platform.a(fsl_clock_MK64F12.o)
 .debug_frame   0x00001ce4      0x114 /opt/Freescale/KSDK_1.2.0/examples/frdmk64f/demo_apps/usb/device/hid/hhkb/bm/kds/../../../../../../../../../lib/ksdk_platform_lib/kds/K64F12/debug/libksdk_platform.a(fsl_clock_manager.o)
 .debug_frame   0x00001df8      0x36c /opt/Freescale/KSDK_1.2.0/examples/frdmk64f/demo_apps/usb/device/hid/hhkb/bm/kds/../../../../../../../../../lib/ksdk_platform_lib/kds/K64F12/debug/libksdk_platform.a(fsl_os_abstraction_bm.o)
 .debug_frame   0x00002164       0x20 /opt/Freescale/KSDK_1.2.0/examples/frdmk64f/demo_apps/usb/device/hid/hhkb/bm/kds/../../../../../../../../../lib/ksdk_platform_lib/kds/K64F12/debug/libksdk_platform.a(fsl_osc_hal.o)
 .debug_frame   0x00002184      0x1b8 /opt/Freescale/KSDK_1.2.0/examples/frdmk64f/demo_apps/usb/device/hid/hhkb/bm/kds/../../../../../../../../../lib/ksdk_platform_lib/kds/K64F12/debug/libksdk_platform.a(fsl_mcg_hal.o)
 .debug_frame   0x0000233c      0x140 /opt/Freescale/KSDK_1.2.0/examples/frdmk64f/demo_apps/usb/device/hid/hhkb/bm/kds/../../../../../../../../../lib/ksdk_platform_lib/kds/K64F12/debug/libksdk_platform.a(fsl_mcg_hal_modes.o)
 .debug_frame   0x0000247c       0x58 /opt/Freescale/KSDK_1.2.0/examples/frdmk64f/demo_apps/usb/device/hid/hhkb/bm/kds/../../../../../../../../../lib/ksdk_platform_lib/kds/K64F12/debug/libksdk_platform.a(fsl_lptmr_hal.o)
 .debug_frame   0x000024d4       0x48 /opt/Freescale/KSDK_1.2.0/examples/frdmk64f/demo_apps/usb/device/hid/hhkb/bm/kds/../../../../../../../../../lib/ksdk_platform_lib/kds/K64F12/debug/libksdk_platform.a(fsl_interrupt_manager.o)
 .debug_frame   0x0000251c       0x40 /opt/Freescale/KSDK_1.2.0/examples/frdmk64f/demo_apps/usb/device/hid/hhkb/bm/kds/../../../../../../../../../lib/ksdk_platform_lib/kds/K64F12/debug/libksdk_platform.a(fsl_gpio_hal.o)
 .debug_frame   0x0000255c       0x48 /opt/Freescale/KDS_3.0.0/toolchain/bin/../lib/gcc/arm-none-eabi/4.8.4/../../../../arm-none-eabi/lib/armv7e-m/fpu/libg_s.a(lib_a-assert.o)
 .debug_frame   0x000025a4       0x20 /opt/Freescale/KDS_3.0.0/toolchain/bin/../lib/gcc/arm-none-eabi/4.8.4/../../../../arm-none-eabi/lib/armv7e-m/fpu/libg_s.a(lib_a-calloc.o)
 .debug_frame   0x000025c4       0x20 /opt/Freescale/KDS_3.0.0/toolchain/bin/../lib/gcc/arm-none-eabi/4.8.4/../../../../arm-none-eabi/lib/armv7e-m/fpu/libg_s.a(lib_a-errno.o)
 .debug_frame   0x000025e4       0x28 /opt/Freescale/KDS_3.0.0/toolchain/bin/../lib/gcc/arm-none-eabi/4.8.4/../../../../arm-none-eabi/lib/armv7e-m/fpu/libg_s.a(lib_a-exit.o)
 .debug_frame   0x0000260c       0x58 /opt/Freescale/KDS_3.0.0/toolchain/bin/../lib/gcc/arm-none-eabi/4.8.4/../../../../arm-none-eabi/lib/armv7e-m/fpu/libg_s.a(lib_a-fprintf.o)
 .debug_frame   0x00002664       0x2c /opt/Freescale/KDS_3.0.0/toolchain/bin/../lib/gcc/arm-none-eabi/4.8.4/../../../../arm-none-eabi/lib/armv7e-m/fpu/libg_s.a(lib_a-init.o)
 .debug_frame   0x00002690       0x30 /opt/Freescale/KDS_3.0.0/toolchain/bin/../lib/gcc/arm-none-eabi/4.8.4/../../../../arm-none-eabi/lib/armv7e-m/fpu/libg_s.a(lib_a-malloc.o)
 .debug_frame   0x000026c0       0x28 /opt/Freescale/KDS_3.0.0/toolchain/bin/../lib/gcc/arm-none-eabi/4.8.4/../../../../arm-none-eabi/lib/armv7e-m/fpu/libg_s.a(lib_a-memcpy-stub.o)
 .debug_frame   0x000026e8       0x20 /opt/Freescale/KDS_3.0.0/toolchain/bin/../lib/gcc/arm-none-eabi/4.8.4/../../../../arm-none-eabi/lib/armv7e-m/fpu/libg_s.a(lib_a-memset.o)
 .debug_frame   0x00002708       0x2c /opt/Freescale/KDS_3.0.0/toolchain/bin/../lib/gcc/arm-none-eabi/4.8.4/../../../../arm-none-eabi/lib/armv7e-m/fpu/libg_s.a(lib_a-nano-callocr.o)
 .debug_frame   0x00002734       0x2c /opt/Freescale/KDS_3.0.0/toolchain/bin/../lib/gcc/arm-none-eabi/4.8.4/../../../../arm-none-eabi/lib/armv7e-m/fpu/libg_s.a(lib_a-nano-freer.o)
 .debug_frame   0x00002760       0x2c /opt/Freescale/KDS_3.0.0/toolchain/bin/../lib/gcc/arm-none-eabi/4.8.4/../../../../arm-none-eabi/lib/armv7e-m/fpu/libg_s.a(lib_a-nano-mallocr.o)
 .debug_frame   0x0000278c       0x2c /opt/Freescale/KDS_3.0.0/toolchain/bin/../lib/gcc/arm-none-eabi/4.8.4/../../../../arm-none-eabi/lib/armv7e-m/fpu/libg_s.a(lib_a-sbrkr.o)
 .debug_frame   0x000027b8       0x20 /opt/Freescale/KDS_3.0.0/toolchain/bin/../lib/gcc/arm-none-eabi/4.8.4/../../../../arm-none-eabi/lib/armv7e-m/fpu/libg_s.a(lib_a-strlen.o)
 .debug_frame   0x000027d8       0xa8 /opt/Freescale/KDS_3.0.0/toolchain/bin/../lib/gcc/arm-none-eabi/4.8.4/../../../../arm-none-eabi/lib/armv7e-m/fpu/libg_s.a(lib_a-vfprintf.o)
 .debug_frame   0x00002880       0x60 /opt/Freescale/KDS_3.0.0/toolchain/bin/../lib/gcc/arm-none-eabi/4.8.4/../../../../arm-none-eabi/lib/armv7e-m/fpu/libg_s.a(lib_a-vfprintf_i.o)
 .debug_frame   0x000028e0       0x3c /opt/Freescale/KDS_3.0.0/toolchain/bin/../lib/gcc/arm-none-eabi/4.8.4/../../../../arm-none-eabi/lib/armv7e-m/fpu/libg_s.a(lib_a-wbuf.o)
 .debug_frame   0x0000291c       0x2c /opt/Freescale/KDS_3.0.0/toolchain/bin/../lib/gcc/arm-none-eabi/4.8.4/../../../../arm-none-eabi/lib/armv7e-m/fpu/libg_s.a(lib_a-wsetup.o)
 .debug_frame   0x00002948       0x28 /opt/Freescale/KDS_3.0.0/toolchain/bin/../lib/gcc/arm-none-eabi/4.8.4/../../../../arm-none-eabi/lib/armv7e-m/fpu/libg_s.a(lib_a-abort.o)
 .debug_frame   0x00002970       0x5c /opt/Freescale/KDS_3.0.0/toolchain/bin/../lib/gcc/arm-none-eabi/4.8.4/../../../../arm-none-eabi/lib/armv7e-m/fpu/libg_s.a(lib_a-fflush.o)
 .debug_frame   0x000029cc      0x12c /opt/Freescale/KDS_3.0.0/toolchain/bin/../lib/gcc/arm-none-eabi/4.8.4/../../../../arm-none-eabi/lib/armv7e-m/fpu/libg_s.a(lib_a-findfp.o)
 .debug_frame   0x00002af8       0x30 /opt/Freescale/KDS_3.0.0/toolchain/bin/../lib/gcc/arm-none-eabi/4.8.4/../../../../arm-none-eabi/lib/armv7e-m/fpu/libg_s.a(lib_a-makebuf.o)
 .debug_frame   0x00002b28       0x28 /opt/Freescale/KDS_3.0.0/toolchain/bin/../lib/gcc/arm-none-eabi/4.8.4/../../../../arm-none-eabi/lib/armv7e-m/fpu/libg_s.a(lib_a-memchr-stub.o)
 .debug_frame   0x00002b50       0x48 /opt/Freescale/KDS_3.0.0/toolchain/bin/../lib/gcc/arm-none-eabi/4.8.4/../../../../arm-none-eabi/lib/armv7e-m/fpu/libg_s.a(lib_a-reent.o)
 .debug_frame   0x00002b98       0xc0 /opt/Freescale/KDS_3.0.0/toolchain/bin/../lib/gcc/arm-none-eabi/4.8.4/../../../../arm-none-eabi/lib/armv7e-m/fpu/libg_s.a(lib_a-signal.o)
 .debug_frame   0x00002c58       0x3c /opt/Freescale/KDS_3.0.0/toolchain/bin/../lib/gcc/arm-none-eabi/4.8.4/../../../../arm-none-eabi/lib/armv7e-m/fpu/libg_s.a(lib_a-signalr.o)
 .debug_frame   0x00002c94       0x80 /opt/Freescale/KDS_3.0.0/toolchain/bin/../lib/gcc/arm-none-eabi/4.8.4/../../../../arm-none-eabi/lib/armv7e-m/fpu/libg_s.a(lib_a-stdio.o)
 .debug_frame   0x00002d14       0x2c /opt/Freescale/KDS_3.0.0/toolchain/bin/../lib/gcc/arm-none-eabi/4.8.4/../../../../arm-none-eabi/lib/armv7e-m/fpu/libg_s.a(lib_a-writer.o)
 .debug_frame   0x00002d40       0x2c /opt/Freescale/KDS_3.0.0/toolchain/bin/../lib/gcc/arm-none-eabi/4.8.4/../../../../arm-none-eabi/lib/armv7e-m/fpu/libg_s.a(lib_a-closer.o)
 .debug_frame   0x00002d6c       0x2c /opt/Freescale/KDS_3.0.0/toolchain/bin/../lib/gcc/arm-none-eabi/4.8.4/../../../../arm-none-eabi/lib/armv7e-m/fpu/libg_s.a(lib_a-fstatr.o)
 .debug_frame   0x00002d98       0x2c /opt/Freescale/KDS_3.0.0/toolchain/bin/../lib/gcc/arm-none-eabi/4.8.4/../../../../arm-none-eabi/lib/armv7e-m/fpu/libg_s.a(lib_a-isattyr.o)
 .debug_frame   0x00002dc4       0x2c /opt/Freescale/KDS_3.0.0/toolchain/bin/../lib/gcc/arm-none-eabi/4.8.4/../../../../arm-none-eabi/lib/armv7e-m/fpu/libg_s.a(lib_a-lseekr.o)
 .debug_frame   0x00002df0       0x2c /opt/Freescale/KDS_3.0.0/toolchain/bin/../lib/gcc/arm-none-eabi/4.8.4/../../../../arm-none-eabi/lib/armv7e-m/fpu/libg_s.a(lib_a-readr.o)
 .debug_frame   0x00002e1c       0x20 /opt/Freescale/KDS_3.0.0/toolchain/bin/../lib/gcc/arm-none-eabi/4.8.4/../../../../arm-none-eabi/lib/armv7e-m/fpu/libnosys.a(close.o)
 .debug_frame   0x00002e3c       0x20 /opt/Freescale/KDS_3.0.0/toolchain/bin/../lib/gcc/arm-none-eabi/4.8.4/../../../../arm-none-eabi/lib/armv7e-m/fpu/libnosys.a(fstat.o)
 .debug_frame   0x00002e5c       0x20 /opt/Freescale/KDS_3.0.0/toolchain/bin/../lib/gcc/arm-none-eabi/4.8.4/../../../../arm-none-eabi/lib/armv7e-m/fpu/libnosys.a(getpid.o)
 .debug_frame   0x00002e7c       0x20 /opt/Freescale/KDS_3.0.0/toolchain/bin/../lib/gcc/arm-none-eabi/4.8.4/../../../../arm-none-eabi/lib/armv7e-m/fpu/libnosys.a(isatty.o)
 .debug_frame   0x00002e9c       0x20 /opt/Freescale/KDS_3.0.0/toolchain/bin/../lib/gcc/arm-none-eabi/4.8.4/../../../../arm-none-eabi/lib/armv7e-m/fpu/libnosys.a(kill.o)
 .debug_frame   0x00002ebc       0x20 /opt/Freescale/KDS_3.0.0/toolchain/bin/../lib/gcc/arm-none-eabi/4.8.4/../../../../arm-none-eabi/lib/armv7e-m/fpu/libnosys.a(lseek.o)
 .debug_frame   0x00002edc       0x20 /opt/Freescale/KDS_3.0.0/toolchain/bin/../lib/gcc/arm-none-eabi/4.8.4/../../../../arm-none-eabi/lib/armv7e-m/fpu/libnosys.a(_exit.o)

.stab           0x00000000       0x9c
 .stab          0x00000000       0x24 /opt/Freescale/KDS_3.0.0/toolchain/bin/../lib/gcc/arm-none-eabi/4.8.4/../../../../arm-none-eabi/lib/armv7e-m/fpu/libnosys.a(close.o)
 .stab          0x00000024       0x18 /opt/Freescale/KDS_3.0.0/toolchain/bin/../lib/gcc/arm-none-eabi/4.8.4/../../../../arm-none-eabi/lib/armv7e-m/fpu/libnosys.a(fstat.o)
                                 0x24 (size before relaxing)
 .stab          0x0000003c       0x18 /opt/Freescale/KDS_3.0.0/toolchain/bin/../lib/gcc/arm-none-eabi/4.8.4/../../../../arm-none-eabi/lib/armv7e-m/fpu/libnosys.a(getpid.o)
                                 0x24 (size before relaxing)
 .stab          0x00000054       0x18 /opt/Freescale/KDS_3.0.0/toolchain/bin/../lib/gcc/arm-none-eabi/4.8.4/../../../../arm-none-eabi/lib/armv7e-m/fpu/libnosys.a(isatty.o)
                                 0x24 (size before relaxing)
 .stab          0x0000006c       0x18 /opt/Freescale/KDS_3.0.0/toolchain/bin/../lib/gcc/arm-none-eabi/4.8.4/../../../../arm-none-eabi/lib/armv7e-m/fpu/libnosys.a(kill.o)
                                 0x24 (size before relaxing)
 .stab          0x00000084       0x18 /opt/Freescale/KDS_3.0.0/toolchain/bin/../lib/gcc/arm-none-eabi/4.8.4/../../../../arm-none-eabi/lib/armv7e-m/fpu/libnosys.a(lseek.o)
                                 0x24 (size before relaxing)

.stabstr        0x00000000      0x14f
 .stabstr       0x00000000      0x14f /opt/Freescale/KDS_3.0.0/toolchain/bin/../lib/gcc/arm-none-eabi/4.8.4/../../../../arm-none-eabi/lib/armv7e-m/fpu/libnosys.a(close.o)
